
a.exe:     file format pei-x86-64


Disassembly of section .text:

0000000140001000 <__mingw_invalidParameterHandler>:
   140001000:	c3                   	ret
   140001001:	0f 1f 40 00          	nopl   0x0(%rax)
   140001005:	66 66 2e 0f 1f 84 00 	data16 cs nopw 0x0(%rax,%rax,1)
   14000100c:	00 00 00 00 

0000000140001010 <__tmainCRTStartup>:
   140001010:	41 57                	push   %r15
   140001012:	41 56                	push   %r14
   140001014:	41 55                	push   %r13
   140001016:	41 54                	push   %r12
   140001018:	55                   	push   %rbp
   140001019:	57                   	push   %rdi
   14000101a:	56                   	push   %rsi
   14000101b:	53                   	push   %rbx
   14000101c:	48 83 ec 58          	sub    $0x58,%rsp
   140001020:	b8 30 00 00 00       	mov    $0x30,%eax
   140001025:	65 67 48 8b 00       	mov    %gs:(%eax),%rax
   14000102a:	48 8b 70 08          	mov    0x8(%rax),%rsi
   14000102e:	48 8b 1d bb 47 00 00 	mov    0x47bb(%rip),%rbx        # 1400057f0 <.refptr.__native_startup_lock>
   140001035:	48 8b 3d c4 82 40 00 	mov    0x4082c4(%rip),%rdi        # 140409300 <__imp_Sleep>
   14000103c:	eb 12                	jmp    140001050 <__tmainCRTStartup+0x40>
   14000103e:	66 90                	xchg   %ax,%ax
   140001040:	48 39 c6             	cmp    %rax,%rsi
   140001043:	0f 84 b7 00 00 00    	je     140001100 <__tmainCRTStartup+0xf0>
   140001049:	b9 e8 03 00 00       	mov    $0x3e8,%ecx
   14000104e:	ff d7                	call   *%rdi
   140001050:	31 c0                	xor    %eax,%eax
   140001052:	f0 48 0f b1 33       	lock cmpxchg %rsi,(%rbx)
   140001057:	75 e7                	jne    140001040 <__tmainCRTStartup+0x30>
   140001059:	45 31 f6             	xor    %r14d,%r14d
   14000105c:	48 8b 2d 9d 47 00 00 	mov    0x479d(%rip),%rbp        # 140005800 <.refptr.__native_startup_state>
   140001063:	8b 45 00             	mov    0x0(%rbp),%eax
   140001066:	83 f8 01             	cmp    $0x1,%eax
   140001069:	0f 84 59 03 00 00    	je     1400013c8 <__tmainCRTStartup+0x3b8>
   14000106f:	8b 45 00             	mov    0x0(%rbp),%eax
   140001072:	85 c0                	test   %eax,%eax
   140001074:	0f 84 96 00 00 00    	je     140001110 <__tmainCRTStartup+0x100>
   14000107a:	c7 05 80 6f 00 00 01 	movl   $0x1,0x6f80(%rip)        # 140008004 <has_cctor>
   140001081:	00 00 00 
   140001084:	45 85 f6             	test   %r14d,%r14d
   140001087:	0f 84 9b 02 00 00    	je     140001328 <__tmainCRTStartup+0x318>
   14000108d:	48 8b 05 bc 46 00 00 	mov    0x46bc(%rip),%rax        # 140005750 <.refptr.__dyn_tls_init_callback>
   140001094:	48 8b 00             	mov    (%rax),%rax
   140001097:	48 85 c0             	test   %rax,%rax
   14000109a:	74 0c                	je     1400010a8 <__tmainCRTStartup+0x98>
   14000109c:	45 31 c0             	xor    %r8d,%r8d
   14000109f:	ba 02 00 00 00       	mov    $0x2,%edx
   1400010a4:	31 c9                	xor    %ecx,%ecx
   1400010a6:	ff d0                	call   *%rax
   1400010a8:	e8 83 1e 00 00       	call   140002f30 <__p___initenv>
   1400010ad:	4c 8b 05 5c 6f 00 00 	mov    0x6f5c(%rip),%r8        # 140008010 <envp>
   1400010b4:	8b 0d 66 6f 00 00    	mov    0x6f66(%rip),%ecx        # 140008020 <argc>
   1400010ba:	4c 89 00             	mov    %r8,(%rax)
   1400010bd:	48 8b 15 54 6f 00 00 	mov    0x6f54(%rip),%rdx        # 140008018 <argv>
   1400010c4:	e8 c7 27 00 00       	call   140003890 <main>
   1400010c9:	8b 0d 39 6f 00 00    	mov    0x6f39(%rip),%ecx        # 140008008 <managedapp>
   1400010cf:	85 c9                	test   %ecx,%ecx
   1400010d1:	0f 84 fb 02 00 00    	je     1400013d2 <__tmainCRTStartup+0x3c2>
   1400010d7:	8b 15 27 6f 00 00    	mov    0x6f27(%rip),%edx        # 140008004 <has_cctor>
   1400010dd:	85 d2                	test   %edx,%edx
   1400010df:	0f 84 2b 02 00 00    	je     140001310 <__tmainCRTStartup+0x300>
   1400010e5:	48 83 c4 58          	add    $0x58,%rsp
   1400010e9:	5b                   	pop    %rbx
   1400010ea:	5e                   	pop    %rsi
   1400010eb:	5f                   	pop    %rdi
   1400010ec:	5d                   	pop    %rbp
   1400010ed:	41 5c                	pop    %r12
   1400010ef:	41 5d                	pop    %r13
   1400010f1:	41 5e                	pop    %r14
   1400010f3:	41 5f                	pop    %r15
   1400010f5:	c3                   	ret
   1400010f6:	66 2e 0f 1f 84 00 00 	cs nopw 0x0(%rax,%rax,1)
   1400010fd:	00 00 00 
   140001100:	41 be 01 00 00 00    	mov    $0x1,%r14d
   140001106:	e9 51 ff ff ff       	jmp    14000105c <__tmainCRTStartup+0x4c>
   14000110b:	0f 1f 44 00 00       	nopl   0x0(%rax,%rax,1)
   140001110:	c7 45 00 01 00 00 00 	movl   $0x1,0x0(%rbp)
   140001117:	e8 24 11 00 00       	call   140002240 <_pei386_runtime_relocator>
   14000111c:	48 8d 0d fd 14 00 00 	lea    0x14fd(%rip),%rcx        # 140002620 <_gnu_exception_handler>
   140001123:	ff 15 cf 81 40 00    	call   *0x4081cf(%rip)        # 1404092f8 <__imp_SetUnhandledExceptionFilter>
   140001129:	48 8b 15 b0 46 00 00 	mov    0x46b0(%rip),%rdx        # 1400057e0 <.refptr.__mingw_oldexcpt_handler>
   140001130:	48 8d 0d c9 fe ff ff 	lea    -0x137(%rip),%rcx        # 140001000 <__mingw_invalidParameterHandler>
   140001137:	48 89 02             	mov    %rax,(%rdx)
   14000113a:	e8 11 1e 00 00       	call   140002f50 <_set_invalid_parameter_handler>
   14000113f:	e8 3c 19 00 00       	call   140002a80 <_fpreset>
   140001144:	48 8b 05 65 46 00 00 	mov    0x4665(%rip),%rax        # 1400057b0 <.refptr.__mingw_initltsdrot_force>
   14000114b:	31 c9                	xor    %ecx,%ecx
   14000114d:	c7 00 01 00 00 00    	movl   $0x1,(%rax)
   140001153:	48 8b 05 66 46 00 00 	mov    0x4666(%rip),%rax        # 1400057c0 <.refptr.__mingw_initltsdyn_force>
   14000115a:	c7 00 01 00 00 00    	movl   $0x1,(%rax)
   140001160:	48 8b 05 69 46 00 00 	mov    0x4669(%rip),%rax        # 1400057d0 <.refptr.__mingw_initltssuo_force>
   140001167:	c7 00 01 00 00 00    	movl   $0x1,(%rax)
   14000116d:	48 8b 05 ac 45 00 00 	mov    0x45ac(%rip),%rax        # 140005720 <.refptr.__ImageBase>
   140001174:	66 81 38 4d 5a       	cmpw   $0x5a4d,(%rax)
   140001179:	75 45                	jne    1400011c0 <__tmainCRTStartup+0x1b0>
   14000117b:	48 63 50 3c          	movslq 0x3c(%rax),%rdx
   14000117f:	48 01 d0             	add    %rdx,%rax
   140001182:	81 38 50 45 00 00    	cmpl   $0x4550,(%rax)
   140001188:	75 36                	jne    1400011c0 <__tmainCRTStartup+0x1b0>
   14000118a:	0f b7 50 18          	movzwl 0x18(%rax),%edx
   14000118e:	66 81 fa 0b 01       	cmp    $0x10b,%dx
   140001193:	0f 84 11 02 00 00    	je     1400013aa <__tmainCRTStartup+0x39a>
   140001199:	66 81 fa 0b 02       	cmp    $0x20b,%dx
   14000119e:	75 20                	jne    1400011c0 <__tmainCRTStartup+0x1b0>
   1400011a0:	83 b8 84 00 00 00 0e 	cmpl   $0xe,0x84(%rax)
   1400011a7:	76 17                	jbe    1400011c0 <__tmainCRTStartup+0x1b0>
   1400011a9:	44 8b 88 f8 00 00 00 	mov    0xf8(%rax),%r9d
   1400011b0:	31 c9                	xor    %ecx,%ecx
   1400011b2:	45 85 c9             	test   %r9d,%r9d
   1400011b5:	0f 95 c1             	setne  %cl
   1400011b8:	0f 1f 84 00 00 00 00 	nopl   0x0(%rax,%rax,1)
   1400011bf:	00 
   1400011c0:	48 8b 05 d9 45 00 00 	mov    0x45d9(%rip),%rax        # 1400057a0 <.refptr.__mingw_app_type>
   1400011c7:	89 0d 3b 6e 00 00    	mov    %ecx,0x6e3b(%rip)        # 140008008 <managedapp>
   1400011cd:	44 8b 00             	mov    (%rax),%r8d
   1400011d0:	45 85 c0             	test   %r8d,%r8d
   1400011d3:	0f 85 5f 01 00 00    	jne    140001338 <__tmainCRTStartup+0x328>
   1400011d9:	b9 01 00 00 00       	mov    $0x1,%ecx
   1400011de:	e8 d5 1d 00 00       	call   140002fb8 <__set_app_type>
   1400011e3:	e8 28 1d 00 00       	call   140002f10 <__p__fmode>
   1400011e8:	48 8b 15 81 46 00 00 	mov    0x4681(%rip),%rdx        # 140005870 <.refptr._fmode>
   1400011ef:	8b 12                	mov    (%rdx),%edx
   1400011f1:	89 10                	mov    %edx,(%rax)
   1400011f3:	e8 28 1d 00 00       	call   140002f20 <__p__commode>
   1400011f8:	48 8b 15 51 46 00 00 	mov    0x4651(%rip),%rdx        # 140005850 <.refptr._commode>
   1400011ff:	8b 12                	mov    (%rdx),%edx
   140001201:	89 10                	mov    %edx,(%rax)
   140001203:	e8 a8 0c 00 00       	call   140001eb0 <_setargv>
   140001208:	85 c0                	test   %eax,%eax
   14000120a:	0f 88 f1 00 00 00    	js     140001301 <__tmainCRTStartup+0x2f1>
   140001210:	48 8b 05 d9 44 00 00 	mov    0x44d9(%rip),%rax        # 1400056f0 <.refptr._MINGW_INSTALL_DEBUG_MATHERR>
   140001217:	83 38 01             	cmpl   $0x1,(%rax)
   14000121a:	0f 84 79 01 00 00    	je     140001399 <__tmainCRTStartup+0x389>
   140001220:	48 8b 05 39 45 00 00 	mov    0x4539(%rip),%rax        # 140005760 <.refptr.__globallocalestatus>
   140001227:	83 38 ff             	cmpl   $0xffffffff,(%rax)
   14000122a:	0f 84 5a 01 00 00    	je     14000138a <__tmainCRTStartup+0x37a>
   140001230:	48 8b 15 09 46 00 00 	mov    0x4609(%rip),%rdx        # 140005840 <.refptr.__xi_z>
   140001237:	48 8b 0d f2 45 00 00 	mov    0x45f2(%rip),%rcx        # 140005830 <.refptr.__xi_a>
   14000123e:	e8 8d 1c 00 00       	call   140002ed0 <_initterm_e>
   140001243:	85 c0                	test   %eax,%eax
   140001245:	0f 85 35 01 00 00    	jne    140001380 <__tmainCRTStartup+0x370>
   14000124b:	48 8b 05 4e 46 00 00 	mov    0x464e(%rip),%rax        # 1400058a0 <.refptr._newmode>
   140001252:	4c 8d 05 b7 6d 00 00 	lea    0x6db7(%rip),%r8        # 140008010 <envp>
   140001259:	48 8d 15 b8 6d 00 00 	lea    0x6db8(%rip),%rdx        # 140008018 <argv>
   140001260:	48 8d 0d b9 6d 00 00 	lea    0x6db9(%rip),%rcx        # 140008020 <argc>
   140001267:	8b 00                	mov    (%rax),%eax
   140001269:	89 44 24 4c          	mov    %eax,0x4c(%rsp)
   14000126d:	48 8b 05 ec 45 00 00 	mov    0x45ec(%rip),%rax        # 140005860 <.refptr._dowildcard>
   140001274:	44 8b 08             	mov    (%rax),%r9d
   140001277:	48 8d 44 24 4c       	lea    0x4c(%rsp),%rax
   14000127c:	48 89 44 24 20       	mov    %rax,0x20(%rsp)
   140001281:	e8 22 1d 00 00       	call   140002fa8 <__getmainargs>
   140001286:	85 c0                	test   %eax,%eax
   140001288:	78 77                	js     140001301 <__tmainCRTStartup+0x2f1>
   14000128a:	4c 63 25 8f 6d 00 00 	movslq 0x6d8f(%rip),%r12        # 140008020 <argc>
   140001291:	41 8d 4c 24 01       	lea    0x1(%r12),%ecx
   140001296:	48 63 c9             	movslq %ecx,%rcx
   140001299:	48 c1 e1 03          	shl    $0x3,%rcx
   14000129d:	e8 76 1d 00 00       	call   140003018 <malloc>
   1400012a2:	49 89 c5             	mov    %rax,%r13
   1400012a5:	48 85 c0             	test   %rax,%rax
   1400012a8:	74 57                	je     140001301 <__tmainCRTStartup+0x2f1>
   1400012aa:	45 85 e4             	test   %r12d,%r12d
   1400012ad:	0f 8e 99 00 00 00    	jle    14000134c <__tmainCRTStartup+0x33c>
   1400012b3:	4c 8b 3d 5e 6d 00 00 	mov    0x6d5e(%rip),%r15        # 140008018 <argv>
   1400012ba:	be 01 00 00 00       	mov    $0x1,%esi
   1400012bf:	eb 20                	jmp    1400012e1 <__tmainCRTStartup+0x2d1>
   1400012c1:	0f 1f 80 00 00 00 00 	nopl   0x0(%rax)
   1400012c8:	49 8b 54 f7 f8       	mov    -0x8(%r15,%rsi,8),%rdx
   1400012cd:	49 89 f8             	mov    %rdi,%r8
   1400012d0:	48 89 c1             	mov    %rax,%rcx
   1400012d3:	e8 48 1d 00 00       	call   140003020 <memcpy>
   1400012d8:	49 39 f4             	cmp    %rsi,%r12
   1400012db:	74 6a                	je     140001347 <__tmainCRTStartup+0x337>
   1400012dd:	48 83 c6 01          	add    $0x1,%rsi
   1400012e1:	49 8b 4c f7 f8       	mov    -0x8(%r15,%rsi,8),%rcx
   1400012e6:	e8 4d 1d 00 00       	call   140003038 <strlen>
   1400012eb:	48 8d 78 01          	lea    0x1(%rax),%rdi
   1400012ef:	48 89 f9             	mov    %rdi,%rcx
   1400012f2:	e8 21 1d 00 00       	call   140003018 <malloc>
   1400012f7:	49 89 44 f5 f8       	mov    %rax,-0x8(%r13,%rsi,8)
   1400012fc:	48 85 c0             	test   %rax,%rax
   1400012ff:	75 c7                	jne    1400012c8 <__tmainCRTStartup+0x2b8>
   140001301:	b9 08 00 00 00       	mov    $0x8,%ecx
   140001306:	e8 bd 1c 00 00       	call   140002fc8 <_amsg_exit>
   14000130b:	0f 1f 44 00 00       	nopl   0x0(%rax,%rax,1)
   140001310:	89 44 24 3c          	mov    %eax,0x3c(%rsp)
   140001314:	e8 b7 1c 00 00       	call   140002fd0 <_cexit>
   140001319:	8b 44 24 3c          	mov    0x3c(%rsp),%eax
   14000131d:	e9 c3 fd ff ff       	jmp    1400010e5 <__tmainCRTStartup+0xd5>
   140001322:	66 0f 1f 44 00 00    	nopw   0x0(%rax,%rax,1)
   140001328:	31 c0                	xor    %eax,%eax
   14000132a:	48 87 03             	xchg   %rax,(%rbx)
   14000132d:	e9 5b fd ff ff       	jmp    14000108d <__tmainCRTStartup+0x7d>
   140001332:	66 0f 1f 44 00 00    	nopw   0x0(%rax,%rax,1)
   140001338:	b9 02 00 00 00       	mov    $0x2,%ecx
   14000133d:	e8 76 1c 00 00       	call   140002fb8 <__set_app_type>
   140001342:	e9 9c fe ff ff       	jmp    1400011e3 <__tmainCRTStartup+0x1d3>
   140001347:	4b 8d 44 e5 00       	lea    0x0(%r13,%r12,8),%rax
   14000134c:	48 c7 00 00 00 00 00 	movq   $0x0,(%rax)
   140001353:	48 8b 15 c6 44 00 00 	mov    0x44c6(%rip),%rdx        # 140005820 <.refptr.__xc_z>
   14000135a:	48 8b 0d af 44 00 00 	mov    0x44af(%rip),%rcx        # 140005810 <.refptr.__xc_a>
   140001361:	4c 89 2d b0 6c 00 00 	mov    %r13,0x6cb0(%rip)        # 140008018 <argv>
   140001368:	e8 73 1c 00 00       	call   140002fe0 <_initterm>
   14000136d:	e8 1e 0b 00 00       	call   140001e90 <__main>
   140001372:	c7 45 00 02 00 00 00 	movl   $0x2,0x0(%rbp)
   140001379:	e9 06 fd ff ff       	jmp    140001084 <__tmainCRTStartup+0x74>
   14000137e:	66 90                	xchg   %ax,%ax
   140001380:	b8 ff 00 00 00       	mov    $0xff,%eax
   140001385:	e9 5b fd ff ff       	jmp    1400010e5 <__tmainCRTStartup+0xd5>
   14000138a:	b9 ff ff ff ff       	mov    $0xffffffff,%ecx
   14000138f:	e8 cc 1b 00 00       	call   140002f60 <_configthreadlocale>
   140001394:	e9 97 fe ff ff       	jmp    140001230 <__tmainCRTStartup+0x220>
   140001399:	48 8d 0d d0 0b 00 00 	lea    0xbd0(%rip),%rcx        # 140001f70 <_matherr>
   1400013a0:	e8 6b 12 00 00       	call   140002610 <__mingw_setusermatherr>
   1400013a5:	e9 76 fe ff ff       	jmp    140001220 <__tmainCRTStartup+0x210>
   1400013aa:	83 78 74 0e          	cmpl   $0xe,0x74(%rax)
   1400013ae:	0f 86 0c fe ff ff    	jbe    1400011c0 <__tmainCRTStartup+0x1b0>
   1400013b4:	44 8b 90 e8 00 00 00 	mov    0xe8(%rax),%r10d
   1400013bb:	31 c9                	xor    %ecx,%ecx
   1400013bd:	45 85 d2             	test   %r10d,%r10d
   1400013c0:	0f 95 c1             	setne  %cl
   1400013c3:	e9 f8 fd ff ff       	jmp    1400011c0 <__tmainCRTStartup+0x1b0>
   1400013c8:	b9 1f 00 00 00       	mov    $0x1f,%ecx
   1400013cd:	e8 f6 1b 00 00       	call   140002fc8 <_amsg_exit>
   1400013d2:	89 c1                	mov    %eax,%ecx
   1400013d4:	e8 27 1c 00 00       	call   140003000 <exit>
   1400013d9:	90                   	nop
   1400013da:	66 0f 1f 44 00 00    	nopw   0x0(%rax,%rax,1)

00000001400013e0 <WinMainCRTStartup>:
   1400013e0:	48 83 ec 28          	sub    $0x28,%rsp

00000001400013e4 <.l_startw>:
   1400013e4:	48 8b 05 b5 43 00 00 	mov    0x43b5(%rip),%rax        # 1400057a0 <.refptr.__mingw_app_type>
   1400013eb:	c7 00 01 00 00 00    	movl   $0x1,(%rax)
   1400013f1:	e8 1a fc ff ff       	call   140001010 <__tmainCRTStartup>
   1400013f6:	90                   	nop

00000001400013f7 <.l_endw>:
   1400013f7:	90                   	nop
   1400013f8:	48 83 c4 28          	add    $0x28,%rsp
   1400013fc:	c3                   	ret
   1400013fd:	0f 1f 00             	nopl   (%rax)

0000000140001400 <mainCRTStartup>:
   140001400:	48 83 ec 28          	sub    $0x28,%rsp

0000000140001404 <.l_start>:
   140001404:	48 8b 05 95 43 00 00 	mov    0x4395(%rip),%rax        # 1400057a0 <.refptr.__mingw_app_type>
   14000140b:	c7 00 00 00 00 00    	movl   $0x0,(%rax)
   140001411:	e8 fa fb ff ff       	call   140001010 <__tmainCRTStartup>
   140001416:	90                   	nop

0000000140001417 <.l_end>:
   140001417:	90                   	nop
   140001418:	48 83 c4 28          	add    $0x28,%rsp
   14000141c:	c3                   	ret
   14000141d:	0f 1f 00             	nopl   (%rax)

0000000140001420 <atexit>:
   140001420:	e9 cb 1b 00 00       	jmp    140002ff0 <_crt_atexit>
   140001425:	90                   	nop
   140001426:	90                   	nop
   140001427:	90                   	nop
   140001428:	90                   	nop
   140001429:	90                   	nop
   14000142a:	90                   	nop
   14000142b:	90                   	nop
   14000142c:	90                   	nop
   14000142d:	90                   	nop
   14000142e:	90                   	nop
   14000142f:	90                   	nop

0000000140001430 <__gcc_register_frame>:
   140001430:	48 8d 0d 09 00 00 00 	lea    0x9(%rip),%rcx        # 140001440 <__gcc_deregister_frame>
   140001437:	e9 e4 ff ff ff       	jmp    140001420 <atexit>
   14000143c:	0f 1f 40 00          	nopl   0x0(%rax)

0000000140001440 <__gcc_deregister_frame>:
   140001440:	c3                   	ret
   140001441:	90                   	nop
   140001442:	90                   	nop
   140001443:	90                   	nop
   140001444:	90                   	nop
   140001445:	90                   	nop
   140001446:	90                   	nop
   140001447:	90                   	nop
   140001448:	90                   	nop
   140001449:	90                   	nop
   14000144a:	90                   	nop
   14000144b:	90                   	nop
   14000144c:	90                   	nop
   14000144d:	90                   	nop
   14000144e:	90                   	nop
   14000144f:	90                   	nop

0000000140001450 <_ZL17alpha_blend4_avx2Dv2_xS_i.constprop.0>:
   140001450:	c5 f9 ef c0          	vpxor  %xmm0,%xmm0,%xmm0
   140001454:	c5 fa 6f 12          	vmovdqu (%rdx),%xmm2
   140001458:	c4 e2 79 30 ca       	vpmovzxbw %xmm2,%xmm1
   14000145d:	c5 e9 68 d0          	vpunpckhbw %xmm0,%xmm2,%xmm2
   140001461:	c5 f9 71 f1 08       	vpsllw $0x8,%xmm1,%xmm0
   140001466:	c5 f9 f9 c1          	vpsubw %xmm1,%xmm0,%xmm0
   14000146a:	c5 f1 71 f2 08       	vpsllw $0x8,%xmm2,%xmm1
   14000146f:	c5 f1 f9 ca          	vpsubw %xmm2,%xmm1,%xmm1
   140001473:	c5 f9 71 d0 08       	vpsrlw $0x8,%xmm0,%xmm0
   140001478:	c5 f1 71 d1 08       	vpsrlw $0x8,%xmm1,%xmm1
   14000147d:	c5 f9 67 c1          	vpackuswb %xmm1,%xmm0,%xmm0
   140001481:	c3                   	ret
   140001482:	0f 1f 00             	nopl   (%rax)
   140001485:	66 66 2e 0f 1f 84 00 	data16 cs nopw 0x0(%rax,%rax,1)
   14000148c:	00 00 00 00 

0000000140001490 <_ZL22raster_linear_alpha_s4Pjiii.constprop.0>:
   140001490:	48 83 ec 48          	sub    $0x48,%rsp
   140001494:	48 8d 05 a5 6b 00 00 	lea    0x6ba5(%rip),%rax        # 140008040 <_ZL12pixel_buffer>
   14000149b:	48 63 c9             	movslq %ecx,%rcx
   14000149e:	48 8d 54 24 20       	lea    0x20(%rsp),%rdx
   1400014a3:	48 8d 04 88          	lea    (%rax,%rcx,4),%rax
   1400014a7:	48 8d 4c 24 30       	lea    0x30(%rsp),%rcx
   1400014ac:	c5 fa 6f 00          	vmovdqu (%rax),%xmm0
   1400014b0:	c5 fa 7f 44 24 30    	vmovdqu %xmm0,0x30(%rsp)
   1400014b6:	c5 f9 76 c0          	vpcmpeqd %xmm0,%xmm0,%xmm0
   1400014ba:	c5 f9 71 d0 08       	vpsrlw $0x8,%xmm0,%xmm0
   1400014bf:	c5 fa 7f 44 24 20    	vmovdqu %xmm0,0x20(%rsp)
   1400014c5:	e8 86 ff ff ff       	call   140001450 <_ZL17alpha_blend4_avx2Dv2_xS_i.constprop.0>
   1400014ca:	c5 fa 7f 00          	vmovdqu %xmm0,(%rax)
   1400014ce:	48 83 c4 48          	add    $0x48,%rsp
   1400014d2:	c3                   	ret
   1400014d3:	66 90                	xchg   %ax,%ax
   1400014d5:	66 66 2e 0f 1f 84 00 	data16 cs nopw 0x0(%rax,%rax,1)
   1400014dc:	00 00 00 00 

00000001400014e0 <_ZL11alpha_blendiii.constprop.0>:
   1400014e0:	b8 fe 00 fe 00       	mov    $0xfe00fe,%eax
   1400014e5:	c3                   	ret
   1400014e6:	66 2e 0f 1f 84 00 00 	cs nopw 0x0(%rax,%rax,1)
   1400014ed:	00 00 00 

00000001400014f0 <_ZL31raster_linear_alpha_s4_baselinePjiii.constprop.0>:
   1400014f0:	ba fe 00 fe 00       	mov    $0xfe00fe,%edx
   1400014f5:	48 8d 05 44 6b 00 00 	lea    0x6b44(%rip),%rax        # 140008040 <_ZL12pixel_buffer>
   1400014fc:	c5 f9 6e c2          	vmovd  %edx,%xmm0
   140001500:	c4 e2 79 58 c0       	vpbroadcastd %xmm0,%xmm0
   140001505:	48 63 c9             	movslq %ecx,%rcx
   140001508:	c5 fa 7f 04 88       	vmovdqu %xmm0,(%rax,%rcx,4)
   14000150d:	c3                   	ret
   14000150e:	66 90                	xchg   %ax,%ax

0000000140001510 <_ZSt9__fill_a1IhhEN9__gnu_cxx11__enable_ifIXaasrSt9__is_byteIT_E7__valueoosrSt10__are_sameIS3_T0_E7__valuesrSt20__memcpyable_integerIS6_E7__widthEvE6__typeEPS3_SC_RKS6_.isra.0>:
   140001510:	48 29 ca             	sub    %rcx,%rdx
   140001513:	75 0b                	jne    140001520 <_ZSt9__fill_a1IhhEN9__gnu_cxx11__enable_ifIXaasrSt9__is_byteIT_E7__valueoosrSt10__are_sameIS3_T0_E7__valuesrSt20__memcpyable_integerIS6_E7__widthEvE6__typeEPS3_SC_RKS6_.isra.0+0x10>
   140001515:	c3                   	ret
   140001516:	66 2e 0f 1f 84 00 00 	cs nopw 0x0(%rax,%rax,1)
   14000151d:	00 00 00 
   140001520:	41 0f b6 c0          	movzbl %r8b,%eax
   140001524:	49 89 d0             	mov    %rdx,%r8
   140001527:	89 c2                	mov    %eax,%edx
   140001529:	e9 fa 1a 00 00       	jmp    140003028 <memset>
   14000152e:	66 90                	xchg   %ax,%ax

0000000140001530 <_ZNSt15__new_allocatorIhE8allocateEyPKv.isra.0>:
   140001530:	48 83 ec 28          	sub    $0x28,%rsp
   140001534:	48 85 c9             	test   %rcx,%rcx
   140001537:	78 0f                	js     140001548 <_ZNSt15__new_allocatorIhE8allocateEyPKv.isra.0+0x18>
   140001539:	48 83 c4 28          	add    $0x28,%rsp
   14000153d:	e9 d6 07 00 00       	jmp    140001d18 <_Znwy>
   140001542:	66 0f 1f 44 00 00    	nopw   0x0(%rax,%rax,1)
   140001548:	e8 f3 07 00 00       	call   140001d40 <_ZSt17__throw_bad_allocv>
   14000154d:	90                   	nop
   14000154e:	66 90                	xchg   %ax,%ax

0000000140001550 <_ZNSt15__new_allocatorIhE10deallocateEPhy.isra.0>:
   140001550:	e9 cb 07 00 00       	jmp    140001d20 <_ZdlPvy>
   140001555:	90                   	nop
   140001556:	66 2e 0f 1f 84 00 00 	cs nopw 0x0(%rax,%rax,1)
   14000155d:	00 00 00 

0000000140001560 <_ZNSt12_Vector_baseIhSaIhEE11_M_allocateEy.isra.0>:
   140001560:	48 85 c9             	test   %rcx,%rcx
   140001563:	74 0b                	je     140001570 <_ZNSt12_Vector_baseIhSaIhEE11_M_allocateEy.isra.0+0x10>
   140001565:	eb c9                	jmp    140001530 <_ZNSt15__new_allocatorIhE8allocateEyPKv.isra.0>
   140001567:	66 0f 1f 84 00 00 00 	nopw   0x0(%rax,%rax,1)
   14000156e:	00 00 
   140001570:	31 c0                	xor    %eax,%eax
   140001572:	c3                   	ret
   140001573:	90                   	nop
   140001574:	90                   	nop
   140001575:	66 66 2e 0f 1f 84 00 	data16 cs nopw 0x0(%rax,%rax,1)
   14000157c:	00 00 00 00 

0000000140001580 <_ZNSt6chrono8durationIxSt5ratioILx1ELx1000000EEEC1IxvEERKT_.isra.0>:
   140001580:	48 89 11             	mov    %rdx,(%rcx)
   140001583:	c3                   	ret
   140001584:	90                   	nop
   140001585:	66 66 2e 0f 1f 84 00 	data16 cs nopw 0x0(%rax,%rax,1)
   14000158c:	00 00 00 00 

0000000140001590 <_ZNKSt6chrono8durationIxSt5ratioILx1ELx1000EEE5countEv.isra.0>:
   140001590:	48 89 c8             	mov    %rcx,%rax
   140001593:	c3                   	ret
   140001594:	90                   	nop
   140001595:	66 66 2e 0f 1f 84 00 	data16 cs nopw 0x0(%rax,%rax,1)
   14000159c:	00 00 00 00 

00000001400015a0 <_ZNSt6chronoltIxSt5ratioILx1ELx1000EExS2_EEbRKNS_8durationIT_T0_EERKNS3_IT1_T2_EE.isra.0>:
   1400015a0:	48 83 ec 28          	sub    $0x28,%rsp
   1400015a4:	e8 e7 ff ff ff       	call   140001590 <_ZNKSt6chrono8durationIxSt5ratioILx1ELx1000EEE5countEv.isra.0>
   1400015a9:	48 89 d1             	mov    %rdx,%rcx
   1400015ac:	48 89 c2             	mov    %rax,%rdx
   1400015af:	e8 dc ff ff ff       	call   140001590 <_ZNKSt6chrono8durationIxSt5ratioILx1ELx1000EEE5countEv.isra.0>
   1400015b4:	48 39 c2             	cmp    %rax,%rdx
   1400015b7:	0f 9c c0             	setl   %al
   1400015ba:	48 83 c4 28          	add    $0x28,%rsp
   1400015be:	c3                   	ret
   1400015bf:	90                   	nop

00000001400015c0 <_ZNSt6chrono8durationIxSt5ratioILx1ELx1000EEEC1IxvEERKT_.isra.0>:
   1400015c0:	48 89 11             	mov    %rdx,(%rcx)
   1400015c3:	c3                   	ret
   1400015c4:	90                   	nop
   1400015c5:	66 66 2e 0f 1f 84 00 	data16 cs nopw 0x0(%rax,%rax,1)
   1400015cc:	00 00 00 00 

00000001400015d0 <_ZNSt12_Vector_baseIhSaIhEE13_M_deallocateEPhy.isra.0>:
   1400015d0:	48 85 c9             	test   %rcx,%rcx
   1400015d3:	74 0b                	je     1400015e0 <_ZNSt12_Vector_baseIhSaIhEE13_M_deallocateEPhy.isra.0+0x10>
   1400015d5:	e9 76 ff ff ff       	jmp    140001550 <_ZNSt15__new_allocatorIhE10deallocateEPhy.isra.0>
   1400015da:	66 0f 1f 44 00 00    	nopw   0x0(%rax,%rax,1)
   1400015e0:	c3                   	ret
   1400015e1:	0f 1f 40 00          	nopl   0x0(%rax)
   1400015e5:	66 66 2e 0f 1f 84 00 	data16 cs nopw 0x0(%rax,%rax,1)
   1400015ec:	00 00 00 00 

00000001400015f0 <_ZNSt6chronoleIxSt5ratioILx1ELx1000EExS2_EEbRKNS_8durationIT_T0_EERKNS3_IT1_T2_EE.isra.0>:
   1400015f0:	48 83 ec 28          	sub    $0x28,%rsp
   1400015f4:	48 89 c8             	mov    %rcx,%rax
   1400015f7:	48 89 d1             	mov    %rdx,%rcx
   1400015fa:	48 89 c2             	mov    %rax,%rdx
   1400015fd:	e8 9e ff ff ff       	call   1400015a0 <_ZNSt6chronoltIxSt5ratioILx1ELx1000EExS2_EEbRKNS_8durationIT_T0_EERKNS3_IT1_T2_EE.isra.0>
   140001602:	83 f0 01             	xor    $0x1,%eax
   140001605:	48 83 c4 28          	add    $0x28,%rsp
   140001609:	c3                   	ret
   14000160a:	66 0f 1f 44 00 00    	nopw   0x0(%rax,%rax,1)

0000000140001610 <_ZNKSt6vectorIhSaIhEE11_M_data_ptrIhEEPT_S4_.isra.0>:
   140001610:	48 89 c8             	mov    %rcx,%rax
   140001613:	c3                   	ret
   140001614:	90                   	nop
   140001615:	66 66 2e 0f 1f 84 00 	data16 cs nopw 0x0(%rax,%rax,1)
   14000161c:	00 00 00 00 

0000000140001620 <_ZNSt12_Vector_baseIhSaIhEED2Ev.isra.0>:
   140001620:	48 29 ca             	sub    %rcx,%rdx
   140001623:	eb ab                	jmp    1400015d0 <_ZNSt12_Vector_baseIhSaIhEE13_M_deallocateEPhy.isra.0>
   140001625:	66 66 2e 0f 1f 84 00 	data16 cs nopw 0x0(%rax,%rax,1)
   14000162c:	00 00 00 00 

0000000140001630 <_ZNSt6chrono13duration_castINS_8durationIxSt5ratioILx1ELx1000000000EEEExS3_EENSt9enable_ifIXsrNS_13__is_durationIT_EE5valueES7_E4typeERKNS1_IT0_T1_EE.isra.0>:
   140001630:	48 89 c8             	mov    %rcx,%rax
   140001633:	c3                   	ret
   140001634:	90                   	nop
   140001635:	66 66 2e 0f 1f 84 00 	data16 cs nopw 0x0(%rax,%rax,1)
   14000163c:	00 00 00 00 

0000000140001640 <_ZNSt6chrono8durationIxSt5ratioILx1ELx1000EEEC1IivEERKT_.isra.0>:
   140001640:	48 63 d2             	movslq %edx,%rdx
   140001643:	48 89 11             	mov    %rdx,(%rcx)
   140001646:	c3                   	ret
   140001647:	90                   	nop
   140001648:	0f 1f 84 00 00 00 00 	nopl   0x0(%rax,%rax,1)
   14000164f:	00 

0000000140001650 <_ZNSt6vectorIhSaIhEE4dataEv.isra.0>:
   140001650:	eb be                	jmp    140001610 <_ZNKSt6vectorIhSaIhEE11_M_data_ptrIhEEPT_S4_.isra.0>
   140001652:	0f 1f 00             	nopl   (%rax)
   140001655:	66 66 2e 0f 1f 84 00 	data16 cs nopw 0x0(%rax,%rax,1)
   14000165c:	00 00 00 00 

0000000140001660 <_ZZNSt7__cxx1112basic_stringIcSt11char_traitsIcESaIcEE22__resize_and_overwriteIZNS_9to_stringEmEUlPcyE_EEvyT_EN11_TerminatorD1Ev.isra.0>:
   140001660:	e9 23 07 00 00       	jmp    140001d88 <_ZNSt7__cxx1112basic_stringIcSt11char_traitsIcESaIcEE13_M_set_lengthEy>
   140001665:	90                   	nop
   140001666:	66 2e 0f 1f 84 00 00 	cs nopw 0x0(%rax,%rax,1)
   14000166d:	00 00 00 

0000000140001670 <_ZZNSt7__cxx1112basic_stringIcSt11char_traitsIcESaIcEE22__resize_and_overwriteIZNS_9to_stringEiEUlPcyE_EEvyT_EN11_TerminatorD1Ev.isra.0>:
   140001670:	e9 13 07 00 00       	jmp    140001d88 <_ZNSt7__cxx1112basic_stringIcSt11char_traitsIcESaIcEE13_M_set_lengthEy>
   140001675:	90                   	nop
   140001676:	66 2e 0f 1f 84 00 00 	cs nopw 0x0(%rax,%rax,1)
   14000167d:	00 00 00 

0000000140001680 <_ZNKSt6chrono8durationIxSt5ratioILx1ELx1EEE5countEv.isra.0>:
   140001680:	48 89 c8             	mov    %rcx,%rax
   140001683:	c3                   	ret
   140001684:	90                   	nop
   140001685:	66 66 2e 0f 1f 84 00 	data16 cs nopw 0x0(%rax,%rax,1)
   14000168c:	00 00 00 00 

0000000140001690 <_ZNSt6chrono20__duration_cast_implINS_8durationIxSt5ratioILx1ELx1000EEEES2_ILx1000ELx1EExLb0ELb1EE6__castIxS2_ILx1ELx1EEEES4_RKNS1_IT_T0_EE.isra.0>:
   140001690:	48 83 ec 38          	sub    $0x38,%rsp
   140001694:	e8 e7 ff ff ff       	call   140001680 <_ZNKSt6chrono8durationIxSt5ratioILx1ELx1EEE5countEv.isra.0>
   140001699:	48 8d 4c 24 28       	lea    0x28(%rsp),%rcx
   14000169e:	48 69 d0 e8 03 00 00 	imul   $0x3e8,%rax,%rdx
   1400016a5:	e8 16 ff ff ff       	call   1400015c0 <_ZNSt6chrono8durationIxSt5ratioILx1ELx1000EEEC1IxvEERKT_.isra.0>
   1400016aa:	48 8b 44 24 28       	mov    0x28(%rsp),%rax
   1400016af:	48 83 c4 38          	add    $0x38,%rsp
   1400016b3:	c3                   	ret
   1400016b4:	90                   	nop
   1400016b5:	66 66 2e 0f 1f 84 00 	data16 cs nopw 0x0(%rax,%rax,1)
   1400016bc:	00 00 00 00 

00000001400016c0 <_ZNSt6chrono13duration_castINS_8durationIxSt5ratioILx1ELx1000EEEExS2_ILx1ELx1EEEENSt9enable_ifIXsrNS_13__is_durationIT_EE5valueES8_E4typeERKNS1_IT0_T1_EE.isra.0>:
   1400016c0:	eb ce                	jmp    140001690 <_ZNSt6chrono20__duration_cast_implINS_8durationIxSt5ratioILx1ELx1000EEEES2_ILx1000ELx1EExLb0ELb1EE6__castIxS2_ILx1ELx1EEEES4_RKNS1_IT_T0_EE.isra.0>
   1400016c2:	0f 1f 00             	nopl   (%rax)
   1400016c5:	66 66 2e 0f 1f 84 00 	data16 cs nopw 0x0(%rax,%rax,1)
   1400016cc:	00 00 00 00 

00000001400016d0 <_ZNKSt6chrono8durationIxSt5ratioILx1ELx1000000EEE5countEv.isra.0>:
   1400016d0:	48 89 c8             	mov    %rcx,%rax
   1400016d3:	c3                   	ret
   1400016d4:	90                   	nop
   1400016d5:	66 66 2e 0f 1f 84 00 	data16 cs nopw 0x0(%rax,%rax,1)
   1400016dc:	00 00 00 00 

00000001400016e0 <_ZNKSt6chrono10time_pointINS_3_V212system_clockENS_8durationIxSt5ratioILx1ELx1000000000EEEEE16time_since_epochEv.isra.0>:
   1400016e0:	48 89 c8             	mov    %rcx,%rax
   1400016e3:	c3                   	ret
   1400016e4:	90                   	nop
   1400016e5:	66 66 2e 0f 1f 84 00 	data16 cs nopw 0x0(%rax,%rax,1)
   1400016ec:	00 00 00 00 

00000001400016f0 <_ZnwyPv.isra.0>:
   1400016f0:	48 89 c8             	mov    %rcx,%rax
   1400016f3:	c3                   	ret
   1400016f4:	90                   	nop
   1400016f5:	66 66 2e 0f 1f 84 00 	data16 cs nopw 0x0(%rax,%rax,1)
   1400016fc:	00 00 00 00 

0000000140001700 <_ZNSt6chrono8durationIxSt5ratioILx1ELx1EEEC1IxvEERKT_.isra.0>:
   140001700:	48 89 11             	mov    %rdx,(%rcx)
   140001703:	c3                   	ret
   140001704:	90                   	nop
   140001705:	66 66 2e 0f 1f 84 00 	data16 cs nopw 0x0(%rax,%rax,1)
   14000170c:	00 00 00 00 

0000000140001710 <_ZNSt6chrono20__duration_cast_implINS_8durationIxSt5ratioILx1ELx1EEEES2_ILx1ELx1000EExLb1ELb0EE6__castIxS5_EES4_RKNS1_IT_T0_EE.isra.0>:
   140001710:	48 83 ec 38          	sub    $0x38,%rsp
   140001714:	e8 77 fe ff ff       	call   140001590 <_ZNKSt6chrono8durationIxSt5ratioILx1ELx1000EEE5countEv.isra.0>
   140001719:	48 89 c1             	mov    %rax,%rcx
   14000171c:	48 b8 cf f7 53 e3 a5 	movabs $0x20c49ba5e353f7cf,%rax
   140001723:	9b c4 20 
   140001726:	48 f7 e9             	imul   %rcx
   140001729:	48 c1 f9 3f          	sar    $0x3f,%rcx
   14000172d:	48 c1 fa 07          	sar    $0x7,%rdx
   140001731:	48 29 ca             	sub    %rcx,%rdx
   140001734:	48 8d 4c 24 28       	lea    0x28(%rsp),%rcx
   140001739:	e8 c2 ff ff ff       	call   140001700 <_ZNSt6chrono8durationIxSt5ratioILx1ELx1EEEC1IxvEERKT_.isra.0>
   14000173e:	48 8b 44 24 28       	mov    0x28(%rsp),%rax
   140001743:	48 83 c4 38          	add    $0x38,%rsp
   140001747:	c3                   	ret
   140001748:	0f 1f 84 00 00 00 00 	nopl   0x0(%rax,%rax,1)
   14000174f:	00 

0000000140001750 <_ZNSt6chrono13duration_castINS_8durationIxSt5ratioILx1ELx1EEEExS2_ILx1ELx1000EEEENSt9enable_ifIXsrNS_13__is_durationIT_EE5valueES8_E4typeERKNS1_IT0_T1_EE.isra.0>:
   140001750:	eb be                	jmp    140001710 <_ZNSt6chrono20__duration_cast_implINS_8durationIxSt5ratioILx1ELx1EEEES2_ILx1ELx1000EExLb1ELb0EE6__castIxS5_EES4_RKNS1_IT_T0_EE.isra.0>
   140001752:	0f 1f 00             	nopl   (%rax)
   140001755:	66 66 2e 0f 1f 84 00 	data16 cs nopw 0x0(%rax,%rax,1)
   14000175c:	00 00 00 00 

0000000140001760 <_ZNKSt6chrono8durationIxSt5ratioILx1ELx1000000000EEE5countEv.isra.0>:
   140001760:	48 89 c8             	mov    %rcx,%rax
   140001763:	c3                   	ret
   140001764:	90                   	nop
   140001765:	66 66 2e 0f 1f 84 00 	data16 cs nopw 0x0(%rax,%rax,1)
   14000176c:	00 00 00 00 

0000000140001770 <_ZNSt6chrono20__duration_cast_implINS_8durationIxSt5ratioILx1ELx1000000EEEES2_ILx1ELx1000EExLb1ELb0EE6__castIxS2_ILx1ELx1000000000EEEES4_RKNS1_IT_T0_EE.isra.0>:
   140001770:	48 83 ec 38          	sub    $0x38,%rsp
   140001774:	e8 e7 ff ff ff       	call   140001760 <_ZNKSt6chrono8durationIxSt5ratioILx1ELx1000000000EEE5countEv.isra.0>
   140001779:	48 89 c1             	mov    %rax,%rcx
   14000177c:	48 b8 cf f7 53 e3 a5 	movabs $0x20c49ba5e353f7cf,%rax
   140001783:	9b c4 20 
   140001786:	48 f7 e9             	imul   %rcx
   140001789:	48 c1 f9 3f          	sar    $0x3f,%rcx
   14000178d:	48 c1 fa 07          	sar    $0x7,%rdx
   140001791:	48 29 ca             	sub    %rcx,%rdx
   140001794:	48 8d 4c 24 28       	lea    0x28(%rsp),%rcx
   140001799:	e8 e2 fd ff ff       	call   140001580 <_ZNSt6chrono8durationIxSt5ratioILx1ELx1000000EEEC1IxvEERKT_.isra.0>
   14000179e:	48 8b 44 24 28       	mov    0x28(%rsp),%rax
   1400017a3:	48 83 c4 38          	add    $0x38,%rsp
   1400017a7:	c3                   	ret
   1400017a8:	0f 1f 84 00 00 00 00 	nopl   0x0(%rax,%rax,1)
   1400017af:	00 

00000001400017b0 <_ZNSt6chrono13duration_castINS_8durationIxSt5ratioILx1ELx1000000EEEExS2_ILx1ELx1000000000EEEENSt9enable_ifIXsrNS_13__is_durationIT_EE5valueES8_E4typeERKNS1_IT0_T1_EE.isra.0>:
   1400017b0:	eb be                	jmp    140001770 <_ZNSt6chrono20__duration_cast_implINS_8durationIxSt5ratioILx1ELx1000000EEEES2_ILx1ELx1000EExLb1ELb0EE6__castIxS2_ILx1ELx1000000000EEEES4_RKNS1_IT_T0_EE.isra.0>
   1400017b2:	0f 1f 00             	nopl   (%rax)
   1400017b5:	66 66 2e 0f 1f 84 00 	data16 cs nopw 0x0(%rax,%rax,1)
   1400017bc:	00 00 00 00 

00000001400017c0 <_ZNSt6chrono8durationIxSt5ratioILx1ELx1000000000EEEC1IxvEERKT_.isra.0>:
   1400017c0:	48 89 11             	mov    %rdx,(%rcx)
   1400017c3:	c3                   	ret
   1400017c4:	90                   	nop
   1400017c5:	66 66 2e 0f 1f 84 00 	data16 cs nopw 0x0(%rax,%rax,1)
   1400017cc:	00 00 00 00 

00000001400017d0 <_ZNSt6chronomiIxSt5ratioILx1ELx1000000000EExS2_EENSt11common_typeIJNS_8durationIT_T0_EENS4_IT1_T2_EEEE4typeERKS7_RKSA_.isra.0>:
   1400017d0:	48 83 ec 38          	sub    $0x38,%rsp
   1400017d4:	e8 87 ff ff ff       	call   140001760 <_ZNKSt6chrono8durationIxSt5ratioILx1ELx1000000000EEE5countEv.isra.0>
   1400017d9:	48 89 d1             	mov    %rdx,%rcx
   1400017dc:	48 89 c2             	mov    %rax,%rdx
   1400017df:	e8 7c ff ff ff       	call   140001760 <_ZNKSt6chrono8durationIxSt5ratioILx1ELx1000000000EEE5countEv.isra.0>
   1400017e4:	48 8d 4c 24 28       	lea    0x28(%rsp),%rcx
   1400017e9:	48 29 c2             	sub    %rax,%rdx
   1400017ec:	e8 cf ff ff ff       	call   1400017c0 <_ZNSt6chrono8durationIxSt5ratioILx1ELx1000000000EEEC1IxvEERKT_.isra.0>
   1400017f1:	48 8b 44 24 28       	mov    0x28(%rsp),%rax
   1400017f6:	48 83 c4 38          	add    $0x38,%rsp
   1400017fa:	c3                   	ret
   1400017fb:	0f 1f 44 00 00       	nopl   0x0(%rax,%rax,1)

0000000140001800 <_ZNSt6chronomiINS_3_V212system_clockENS_8durationIxSt5ratioILx1ELx1000000000EEEES6_EENSt11common_typeIJT0_T1_EE4typeERKNS_10time_pointIT_S8_EERKNSC_ISD_S9_EE.isra.0>:
   140001800:	48 83 ec 28          	sub    $0x28,%rsp
   140001804:	49 89 c8             	mov    %rcx,%r8
   140001807:	48 89 d1             	mov    %rdx,%rcx
   14000180a:	e8 d1 fe ff ff       	call   1400016e0 <_ZNKSt6chrono10time_pointINS_3_V212system_clockENS_8durationIxSt5ratioILx1ELx1000000000EEEEE16time_since_epochEv.isra.0>
   14000180f:	49 8b 08             	mov    (%r8),%rcx
   140001812:	48 89 c2             	mov    %rax,%rdx
   140001815:	e8 c6 fe ff ff       	call   1400016e0 <_ZNKSt6chrono10time_pointINS_3_V212system_clockENS_8durationIxSt5ratioILx1ELx1000000000EEEEE16time_since_epochEv.isra.0>
   14000181a:	48 89 c1             	mov    %rax,%rcx
   14000181d:	48 83 c4 28          	add    $0x28,%rsp
   140001821:	eb ad                	jmp    1400017d0 <_ZNSt6chronomiIxSt5ratioILx1ELx1000000000EExS2_EENSt11common_typeIJNS_8durationIT_T0_EENS4_IT1_T2_EEEE4typeERKS7_RKSA_.isra.0>
   140001823:	66 90                	xchg   %ax,%ax
   140001825:	66 66 2e 0f 1f 84 00 	data16 cs nopw 0x0(%rax,%rax,1)
   14000182c:	00 00 00 00 

0000000140001830 <_ZNSt6chrono20__duration_cast_implINS_8durationIxSt5ratioILx1ELx1000000000EEEES2_ILx1000000ELx1EExLb0ELb1EE6__castIxS2_ILx1ELx1000EEEES4_RKNS1_IT_T0_EE.isra.0>:
   140001830:	48 83 ec 38          	sub    $0x38,%rsp
   140001834:	e8 57 fd ff ff       	call   140001590 <_ZNKSt6chrono8durationIxSt5ratioILx1ELx1000EEE5countEv.isra.0>
   140001839:	48 8d 4c 24 28       	lea    0x28(%rsp),%rcx
   14000183e:	48 69 d0 40 42 0f 00 	imul   $0xf4240,%rax,%rdx
   140001845:	e8 76 ff ff ff       	call   1400017c0 <_ZNSt6chrono8durationIxSt5ratioILx1ELx1000000000EEEC1IxvEERKT_.isra.0>
   14000184a:	48 8b 44 24 28       	mov    0x28(%rsp),%rax
   14000184f:	48 83 c4 38          	add    $0x38,%rsp
   140001853:	c3                   	ret
   140001854:	90                   	nop
   140001855:	66 66 2e 0f 1f 84 00 	data16 cs nopw 0x0(%rax,%rax,1)
   14000185c:	00 00 00 00 

0000000140001860 <_ZNSt6chrono13duration_castINS_8durationIxSt5ratioILx1ELx1000000000EEEExS2_ILx1ELx1000EEEENSt9enable_ifIXsrNS_13__is_durationIT_EE5valueES8_E4typeERKNS1_IT0_T1_EE.isra.0>:
   140001860:	eb ce                	jmp    140001830 <_ZNSt6chrono20__duration_cast_implINS_8durationIxSt5ratioILx1ELx1000000000EEEES2_ILx1000000ELx1EExLb0ELb1EE6__castIxS2_ILx1ELx1000EEEES4_RKNS1_IT_T0_EE.isra.0>
   140001862:	0f 1f 00             	nopl   (%rax)
   140001865:	66 66 2e 0f 1f 84 00 	data16 cs nopw 0x0(%rax,%rax,1)
   14000186c:	00 00 00 00 

0000000140001870 <_ZZNSt7__cxx119to_stringEmENKUlPcyE_clES0_y.isra.0>:
   140001870:	53                   	push   %rbx
   140001871:	48 83 ec 20          	sub    $0x20,%rsp
   140001875:	89 c8                	mov    %ecx,%eax
   140001877:	4c 89 c3             	mov    %r8,%rbx
   14000187a:	48 89 d1             	mov    %rdx,%rcx
   14000187d:	41 89 c0             	mov    %eax,%r8d
   140001880:	89 da                	mov    %ebx,%edx
   140001882:	e8 79 1d 00 00       	call   140003600 <_ZNSt8__detail18__to_chars_10_implImEEvPcjT_>
   140001887:	48 89 d8             	mov    %rbx,%rax
   14000188a:	48 83 c4 20          	add    $0x20,%rsp
   14000188e:	5b                   	pop    %rbx
   14000188f:	c3                   	ret

0000000140001890 <_ZNSt6vectorIhSaIhEE11_S_max_sizeERKS0_.isra.0>:
   140001890:	48 83 ec 38          	sub    $0x38,%rsp
   140001894:	48 b8 ff ff ff ff ff 	movabs $0x7fffffffffffffff,%rax
   14000189b:	ff ff 7f 
   14000189e:	48 8d 54 24 28       	lea    0x28(%rsp),%rdx
   1400018a3:	48 8d 4c 24 20       	lea    0x20(%rsp),%rcx
   1400018a8:	48 89 44 24 20       	mov    %rax,0x20(%rsp)
   1400018ad:	48 89 44 24 28       	mov    %rax,0x28(%rsp)
   1400018b2:	e8 99 1e 00 00       	call   140003750 <_ZSt3minIyERKT_S2_S2_>
   1400018b7:	48 8b 00             	mov    (%rax),%rax
   1400018ba:	48 83 c4 38          	add    $0x38,%rsp
   1400018be:	c3                   	ret
   1400018bf:	90                   	nop

00000001400018c0 <_ZNSt6vectorIhSaIhEE17_S_check_init_lenEyRKS0_.isra.0>:
   1400018c0:	53                   	push   %rbx
   1400018c1:	48 83 ec 20          	sub    $0x20,%rsp
   1400018c5:	48 89 cb             	mov    %rcx,%rbx
   1400018c8:	e8 c3 ff ff ff       	call   140001890 <_ZNSt6vectorIhSaIhEE11_S_max_sizeERKS0_.isra.0>
   1400018cd:	48 39 d8             	cmp    %rbx,%rax
   1400018d0:	72 09                	jb     1400018db <_ZNSt6vectorIhSaIhEE17_S_check_init_lenEyRKS0_.isra.0+0x1b>
   1400018d2:	48 89 d8             	mov    %rbx,%rax
   1400018d5:	48 83 c4 20          	add    $0x20,%rsp
   1400018d9:	5b                   	pop    %rbx
   1400018da:	c3                   	ret
   1400018db:	48 8d 0d 1e 37 00 00 	lea    0x371e(%rip),%rcx        # 140005000 <.rdata>
   1400018e2:	e8 51 04 00 00       	call   140001d38 <_ZSt20__throw_length_errorPKc>
   1400018e7:	90                   	nop
   1400018e8:	0f 1f 84 00 00 00 00 	nopl   0x0(%rax,%rax,1)
   1400018ef:	00 

00000001400018f0 <_ZNSt6chronomiIxSt5ratioILx1ELx1000EExS1_ILx1ELx1EEEENSt11common_typeIJNS_8durationIT_T0_EENS5_IT1_T2_EEEE4typeERKS8_RKSB_.isra.0>:
   1400018f0:	53                   	push   %rbx
   1400018f1:	48 83 ec 30          	sub    $0x30,%rsp
   1400018f5:	e8 96 fc ff ff       	call   140001590 <_ZNKSt6chrono8durationIxSt5ratioILx1ELx1000EEE5countEv.isra.0>
   1400018fa:	48 8d 4c 24 20       	lea    0x20(%rsp),%rcx
   1400018ff:	48 89 c3             	mov    %rax,%rbx
   140001902:	e8 89 19 00 00       	call   140003290 <_ZNSt6chrono8durationIxSt5ratioILx1ELx1000EEEC1IxS1_ILx1ELx1EEvEERKNS0_IT_T0_EE>
   140001907:	48 8b 4c 24 20       	mov    0x20(%rsp),%rcx
   14000190c:	e8 7f fc ff ff       	call   140001590 <_ZNKSt6chrono8durationIxSt5ratioILx1ELx1000EEE5countEv.isra.0>
   140001911:	48 8d 4c 24 28       	lea    0x28(%rsp),%rcx
   140001916:	48 29 c3             	sub    %rax,%rbx
   140001919:	48 89 da             	mov    %rbx,%rdx
   14000191c:	e8 9f fc ff ff       	call   1400015c0 <_ZNSt6chrono8durationIxSt5ratioILx1ELx1000EEEC1IxvEERKT_.isra.0>
   140001921:	48 8b 44 24 28       	mov    0x28(%rsp),%rax
   140001926:	c5 f8 77             	vzeroupper
   140001929:	48 83 c4 30          	add    $0x30,%rsp
   14000192d:	5b                   	pop    %rbx
   14000192e:	c3                   	ret
   14000192f:	90                   	nop

0000000140001930 <_ZNSt12_Vector_baseIhSaIhEE12_Vector_implC1ERKS0_.isra.0>:
   140001930:	e9 7b 18 00 00       	jmp    1400031b0 <_ZNSt12_Vector_baseIhSaIhEE17_Vector_impl_dataC2Ev>
   140001935:	90                   	nop
   140001936:	66 2e 0f 1f 84 00 00 	cs nopw 0x0(%rax,%rax,1)
   14000193d:	00 00 00 

0000000140001940 <_ZNSt12_Vector_baseIhSaIhEEC2EyRKS0_.isra.0>:
   140001940:	56                   	push   %rsi
   140001941:	53                   	push   %rbx
   140001942:	48 83 ec 28          	sub    $0x28,%rsp
   140001946:	48 89 cb             	mov    %rcx,%rbx
   140001949:	48 89 d6             	mov    %rdx,%rsi
   14000194c:	e8 df ff ff ff       	call   140001930 <_ZNSt12_Vector_baseIhSaIhEE12_Vector_implC1ERKS0_.isra.0>
   140001951:	48 89 f2             	mov    %rsi,%rdx
   140001954:	48 89 d9             	mov    %rbx,%rcx
   140001957:	e8 24 18 00 00       	call   140003180 <_ZNSt12_Vector_baseIhSaIhEE17_M_create_storageEy>
   14000195c:	90                   	nop
   14000195d:	48 83 c4 28          	add    $0x28,%rsp
   140001961:	5b                   	pop    %rbx
   140001962:	5e                   	pop    %rsi
   140001963:	c3                   	ret
   140001964:	90                   	nop
   140001965:	66 66 2e 0f 1f 84 00 	data16 cs nopw 0x0(%rax,%rax,1)
   14000196c:	00 00 00 00 

0000000140001970 <_ZSt27__uninitialized_default_n_aIPhyhET_S1_T0_RSaIT1_E.isra.0>:
   140001970:	e9 cb 1d 00 00       	jmp    140003740 <_ZSt25__uninitialized_default_nIPhyET_S1_T0_>
   140001975:	90                   	nop
   140001976:	66 2e 0f 1f 84 00 00 	cs nopw 0x0(%rax,%rax,1)
   14000197d:	00 00 00 

0000000140001980 <_ZNSt6vectorIhSaIhEEC1EyRKS0_.isra.0>:
   140001980:	56                   	push   %rsi
   140001981:	53                   	push   %rbx
   140001982:	48 83 ec 28          	sub    $0x28,%rsp
   140001986:	48 89 cb             	mov    %rcx,%rbx
   140001989:	48 89 d1             	mov    %rdx,%rcx
   14000198c:	48 89 d6             	mov    %rdx,%rsi
   14000198f:	e8 2c ff ff ff       	call   1400018c0 <_ZNSt6vectorIhSaIhEE17_S_check_init_lenEyRKS0_.isra.0>
   140001994:	48 89 d9             	mov    %rbx,%rcx
   140001997:	48 89 c2             	mov    %rax,%rdx
   14000199a:	e8 a1 ff ff ff       	call   140001940 <_ZNSt12_Vector_baseIhSaIhEEC2EyRKS0_.isra.0>
   14000199f:	48 89 f2             	mov    %rsi,%rdx
   1400019a2:	48 89 d9             	mov    %rbx,%rcx
   1400019a5:	48 83 c4 28          	add    $0x28,%rsp
   1400019a9:	5b                   	pop    %rbx
   1400019aa:	5e                   	pop    %rsi
   1400019ab:	e9 00 19 00 00       	jmp    1400032b0 <_ZNSt6vectorIhSaIhEE21_M_default_initializeEy>

00000001400019b0 <_Z11GetCoreTypeB5cxx11v>:
   1400019b0:	41 57                	push   %r15
   1400019b2:	41 56                	push   %r14
   1400019b4:	41 54                	push   %r12
   1400019b6:	55                   	push   %rbp
   1400019b7:	57                   	push   %rdi
   1400019b8:	56                   	push   %rsi
   1400019b9:	53                   	push   %rbx
   1400019ba:	48 81 ec 00 01 00 00 	sub    $0x100,%rsp
   1400019c1:	48 89 ce             	mov    %rcx,%rsi
   1400019c4:	48 8d 6c 24 3c       	lea    0x3c(%rsp),%rbp
   1400019c9:	ff 15 f1 78 40 00    	call   *0x4078f1(%rip)        # 1404092c0 <__imp_GetCurrentProcessorNumber>
   1400019cf:	31 d2                	xor    %edx,%edx
   1400019d1:	48 8b 3d 00 79 40 00 	mov    0x407900(%rip),%rdi        # 1404092d8 <__imp_GetLogicalProcessorInformationEx>
   1400019d8:	31 c9                	xor    %ecx,%ecx
   1400019da:	c7 44 24 3c 00 00 00 	movl   $0x0,0x3c(%rsp)
   1400019e1:	00 
   1400019e2:	89 c3                	mov    %eax,%ebx
   1400019e4:	49 89 e8             	mov    %rbp,%r8
   1400019e7:	ff d7                	call   *%rdi
   1400019e9:	8b 54 24 3c          	mov    0x3c(%rsp),%edx
   1400019ed:	85 d2                	test   %edx,%edx
   1400019ef:	75 4f                	jne    140001a40 <_Z11GetCoreTypeB5cxx11v+0x90>
   1400019f1:	89 da                	mov    %ebx,%edx
   1400019f3:	48 8d 8c 24 e0 00 00 	lea    0xe0(%rsp),%rcx
   1400019fa:	00 
   1400019fb:	e8 d0 19 00 00       	call   1400033d0 <_ZNSt7__cxx119to_stringEm>
   140001a00:	4c 8d 84 24 e0 00 00 	lea    0xe0(%rsp),%r8
   140001a07:	00 
   140001a08:	48 8d 15 29 36 00 00 	lea    0x3629(%rip),%rdx        # 140005038 <.rdata+0x38>
   140001a0f:	48 89 f1             	mov    %rsi,%rcx
   140001a12:	e8 09 1e 00 00       	call   140003820 <_ZStplIcSt11char_traitsIcESaIcEENSt7__cxx1112basic_stringIT_T0_T1_EEPKS5_OS8_>
   140001a17:	48 8d 8c 24 e0 00 00 	lea    0xe0(%rsp),%rcx
   140001a1e:	00 
   140001a1f:	e8 24 03 00 00       	call   140001d48 <_ZNSt7__cxx1112basic_stringIcSt11char_traitsIcESaIcEED1Ev>
   140001a24:	48 89 f0             	mov    %rsi,%rax
   140001a27:	48 81 c4 00 01 00 00 	add    $0x100,%rsp
   140001a2e:	5b                   	pop    %rbx
   140001a2f:	5e                   	pop    %rsi
   140001a30:	5f                   	pop    %rdi
   140001a31:	5d                   	pop    %rbp
   140001a32:	41 5c                	pop    %r12
   140001a34:	41 5e                	pop    %r14
   140001a36:	41 5f                	pop    %r15
   140001a38:	c3                   	ret
   140001a39:	0f 1f 80 00 00 00 00 	nopl   0x0(%rax)
   140001a40:	48 8d 4c 24 40       	lea    0x40(%rsp),%rcx
   140001a45:	e8 36 ff ff ff       	call   140001980 <_ZNSt6vectorIhSaIhEEC1EyRKS0_.isra.0>
   140001a4a:	48 8b 4c 24 40       	mov    0x40(%rsp),%rcx
   140001a4f:	49 89 e8             	mov    %rbp,%r8
   140001a52:	e8 f9 fb ff ff       	call   140001650 <_ZNSt6vectorIhSaIhEE4dataEv.isra.0>
   140001a57:	31 c9                	xor    %ecx,%ecx
   140001a59:	48 89 44 24 28       	mov    %rax,0x28(%rsp)
   140001a5e:	48 89 c2             	mov    %rax,%rdx
   140001a61:	c5 f8 77             	vzeroupper
   140001a64:	ff d7                	call   *%rdi
   140001a66:	85 c0                	test   %eax,%eax
   140001a68:	4c 8b 4c 24 28       	mov    0x28(%rsp),%r9
   140001a6d:	0f 84 ad 01 00 00    	je     140001c20 <_Z11GetCoreTypeB5cxx11v+0x270>
   140001a73:	44 8b 54 24 3c       	mov    0x3c(%rsp),%r10d
   140001a78:	4d 01 ca             	add    %r9,%r10
   140001a7b:	4d 39 d1             	cmp    %r10,%r9
   140001a7e:	73 13                	jae    140001a93 <_Z11GetCoreTypeB5cxx11v+0xe3>
   140001a80:	41 8b 01             	mov    (%r9),%eax
   140001a83:	85 c0                	test   %eax,%eax
   140001a85:	74 39                	je     140001ac0 <_Z11GetCoreTypeB5cxx11v+0x110>
   140001a87:	41 8b 41 04          	mov    0x4(%r9),%eax
   140001a8b:	49 01 c1             	add    %rax,%r9
   140001a8e:	4d 39 d1             	cmp    %r10,%r9
   140001a91:	72 ed                	jb     140001a80 <_Z11GetCoreTypeB5cxx11v+0xd0>
   140001a93:	89 da                	mov    %ebx,%edx
   140001a95:	48 8d 8c 24 e0 00 00 	lea    0xe0(%rsp),%rcx
   140001a9c:	00 
   140001a9d:	e8 2e 19 00 00       	call   1400033d0 <_ZNSt7__cxx119to_stringEm>
   140001aa2:	4c 8d 84 24 e0 00 00 	lea    0xe0(%rsp),%r8
   140001aa9:	00 
   140001aaa:	48 8d 15 2c 36 00 00 	lea    0x362c(%rip),%rdx        # 1400050dd <.rdata+0xdd>
   140001ab1:	48 89 f1             	mov    %rsi,%rcx
   140001ab4:	e8 67 1d 00 00       	call   140003820 <_ZStplIcSt11char_traitsIcESaIcEENSt7__cxx1112basic_stringIT_T0_T1_EEPKS5_OS8_>
   140001ab9:	e9 50 01 00 00       	jmp    140001c0e <_Z11GetCoreTypeB5cxx11v+0x25e>
   140001abe:	66 90                	xchg   %ax,%ax
   140001ac0:	41 0f b7 41 1e       	movzwl 0x1e(%r9),%eax
   140001ac5:	66 85 c0             	test   %ax,%ax
   140001ac8:	74 bd                	je     140001a87 <_Z11GetCoreTypeB5cxx11v+0xd7>
   140001aca:	83 e8 01             	sub    $0x1,%eax
   140001acd:	4d 8d 59 20          	lea    0x20(%r9),%r11
   140001ad1:	48 c1 e0 04          	shl    $0x4,%rax
   140001ad5:	49 8d 7c 01 30       	lea    0x30(%r9,%rax,1),%rdi
   140001ada:	45 0f b7 43 08       	movzwl 0x8(%r11),%r8d
   140001adf:	49 8b 13             	mov    (%r11),%rdx
   140001ae2:	31 c0                	xor    %eax,%eax
   140001ae4:	41 c1 e0 06          	shl    $0x6,%r8d
   140001ae8:	eb 12                	jmp    140001afc <_Z11GetCoreTypeB5cxx11v+0x14c>
   140001aea:	66 0f 1f 44 00 00    	nopw   0x0(%rax,%rax,1)
   140001af0:	83 c0 01             	add    $0x1,%eax
   140001af3:	83 f8 40             	cmp    $0x40,%eax
   140001af6:	0f 84 54 01 00 00    	je     140001c50 <_Z11GetCoreTypeB5cxx11v+0x2a0>
   140001afc:	48 0f a3 c2          	bt     %rax,%rdx
   140001b00:	73 ee                	jae    140001af0 <_Z11GetCoreTypeB5cxx11v+0x140>
   140001b02:	42 8d 0c 00          	lea    (%rax,%r8,1),%ecx
   140001b06:	39 cb                	cmp    %ecx,%ebx
   140001b08:	75 e6                	jne    140001af0 <_Z11GetCoreTypeB5cxx11v+0x140>
   140001b0a:	41 0f b6 41 09       	movzbl 0x9(%r9),%eax
   140001b0f:	84 c0                	test   %al,%al
   140001b11:	0f 84 d1 00 00 00    	je     140001be8 <_Z11GetCoreTypeB5cxx11v+0x238>
   140001b17:	48 8d ac 24 c0 00 00 	lea    0xc0(%rsp),%rbp
   140001b1e:	00 
   140001b1f:	0f b6 d0             	movzbl %al,%edx
   140001b22:	48 89 e9             	mov    %rbp,%rcx
   140001b25:	e8 36 18 00 00       	call   140003360 <_ZNSt7__cxx119to_stringEi>
   140001b2a:	89 da                	mov    %ebx,%edx
   140001b2c:	48 8d 4c 24 60       	lea    0x60(%rsp),%rcx
   140001b31:	e8 9a 18 00 00       	call   1400033d0 <_ZNSt7__cxx119to_stringEm>
   140001b36:	4c 8d 44 24 60       	lea    0x60(%rsp),%r8
   140001b3b:	48 8d 15 69 35 00 00 	lea    0x3569(%rip),%rdx        # 1400050ab <.rdata+0xab>
   140001b42:	48 8d 8c 24 80 00 00 	lea    0x80(%rsp),%rcx
   140001b49:	00 
   140001b4a:	e8 d1 1c 00 00       	call   140003820 <_ZStplIcSt11char_traitsIcESaIcEENSt7__cxx1112basic_stringIT_T0_T1_EEPKS5_OS8_>
   140001b4f:	4c 8d 05 71 35 00 00 	lea    0x3571(%rip),%r8        # 1400050c7 <.rdata+0xc7>
   140001b56:	48 8d 94 24 80 00 00 	lea    0x80(%rsp),%rdx
   140001b5d:	00 
   140001b5e:	48 8d 8c 24 a0 00 00 	lea    0xa0(%rsp),%rcx
   140001b65:	00 
   140001b66:	e8 f5 1b 00 00       	call   140003760 <_ZStplIcSt11char_traitsIcESaIcEENSt7__cxx1112basic_stringIT_T0_T1_EEOS8_PKS5_>
   140001b6b:	49 89 e8             	mov    %rbp,%r8
   140001b6e:	48 8d 94 24 a0 00 00 	lea    0xa0(%rsp),%rdx
   140001b75:	00 
   140001b76:	48 8d 8c 24 e0 00 00 	lea    0xe0(%rsp),%rcx
   140001b7d:	00 
   140001b7e:	e8 0d 1c 00 00       	call   140003790 <_ZStplIcSt11char_traitsIcESaIcEENSt7__cxx1112basic_stringIT_T0_T1_EEOS8_S9_>
   140001b83:	4c 8d 05 51 35 00 00 	lea    0x3551(%rip),%r8        # 1400050db <.rdata+0xdb>
   140001b8a:	48 8d 94 24 e0 00 00 	lea    0xe0(%rsp),%rdx
   140001b91:	00 
   140001b92:	48 89 f1             	mov    %rsi,%rcx
   140001b95:	e8 c6 1b 00 00       	call   140003760 <_ZStplIcSt11char_traitsIcESaIcEENSt7__cxx1112basic_stringIT_T0_T1_EEOS8_PKS5_>
   140001b9a:	48 8d 8c 24 e0 00 00 	lea    0xe0(%rsp),%rcx
   140001ba1:	00 
   140001ba2:	e8 a1 01 00 00       	call   140001d48 <_ZNSt7__cxx1112basic_stringIcSt11char_traitsIcESaIcEED1Ev>
   140001ba7:	48 8d 8c 24 a0 00 00 	lea    0xa0(%rsp),%rcx
   140001bae:	00 
   140001baf:	e8 94 01 00 00       	call   140001d48 <_ZNSt7__cxx1112basic_stringIcSt11char_traitsIcESaIcEED1Ev>
   140001bb4:	48 8d 8c 24 80 00 00 	lea    0x80(%rsp),%rcx
   140001bbb:	00 
   140001bbc:	e8 87 01 00 00       	call   140001d48 <_ZNSt7__cxx1112basic_stringIcSt11char_traitsIcESaIcEED1Ev>
   140001bc1:	48 8d 4c 24 60       	lea    0x60(%rsp),%rcx
   140001bc6:	e8 7d 01 00 00       	call   140001d48 <_ZNSt7__cxx1112basic_stringIcSt11char_traitsIcESaIcEED1Ev>
   140001bcb:	48 89 e9             	mov    %rbp,%rcx
   140001bce:	e8 75 01 00 00       	call   140001d48 <_ZNSt7__cxx1112basic_stringIcSt11char_traitsIcESaIcEED1Ev>
   140001bd3:	48 8d 4c 24 40       	lea    0x40(%rsp),%rcx
   140001bd8:	e8 f3 16 00 00       	call   1400032d0 <_ZNSt6vectorIhSaIhEED1Ev>
   140001bdd:	e9 42 fe ff ff       	jmp    140001a24 <_Z11GetCoreTypeB5cxx11v+0x74>
   140001be2:	66 0f 1f 44 00 00    	nopw   0x0(%rax,%rax,1)
   140001be8:	89 da                	mov    %ebx,%edx
   140001bea:	48 8d 8c 24 e0 00 00 	lea    0xe0(%rsp),%rcx
   140001bf1:	00 
   140001bf2:	e8 d9 17 00 00       	call   1400033d0 <_ZNSt7__cxx119to_stringEm>
   140001bf7:	4c 8d 84 24 e0 00 00 	lea    0xe0(%rsp),%r8
   140001bfe:	00 
   140001bff:	48 8d 15 8a 34 00 00 	lea    0x348a(%rip),%rdx        # 140005090 <.rdata+0x90>
   140001c06:	48 89 f1             	mov    %rsi,%rcx
   140001c09:	e8 12 1c 00 00       	call   140003820 <_ZStplIcSt11char_traitsIcESaIcEENSt7__cxx1112basic_stringIT_T0_T1_EEPKS5_OS8_>
   140001c0e:	48 8d 8c 24 e0 00 00 	lea    0xe0(%rsp),%rcx
   140001c15:	00 
   140001c16:	e8 2d 01 00 00       	call   140001d48 <_ZNSt7__cxx1112basic_stringIcSt11char_traitsIcESaIcEED1Ev>
   140001c1b:	eb b6                	jmp    140001bd3 <_Z11GetCoreTypeB5cxx11v+0x223>
   140001c1d:	0f 1f 00             	nopl   (%rax)
   140001c20:	89 da                	mov    %ebx,%edx
   140001c22:	48 8d 8c 24 e0 00 00 	lea    0xe0(%rsp),%rcx
   140001c29:	00 
   140001c2a:	e8 a1 17 00 00       	call   1400033d0 <_ZNSt7__cxx119to_stringEm>
   140001c2f:	4c 8d 84 24 e0 00 00 	lea    0xe0(%rsp),%r8
   140001c36:	00 
   140001c37:	48 8d 15 22 34 00 00 	lea    0x3422(%rip),%rdx        # 140005060 <.rdata+0x60>
   140001c3e:	48 89 f1             	mov    %rsi,%rcx
   140001c41:	e8 da 1b 00 00       	call   140003820 <_ZStplIcSt11char_traitsIcESaIcEENSt7__cxx1112basic_stringIT_T0_T1_EEPKS5_OS8_>
   140001c46:	eb c6                	jmp    140001c0e <_Z11GetCoreTypeB5cxx11v+0x25e>
   140001c48:	0f 1f 84 00 00 00 00 	nopl   0x0(%rax,%rax,1)
   140001c4f:	00 
   140001c50:	49 83 c3 10          	add    $0x10,%r11
   140001c54:	4c 39 df             	cmp    %r11,%rdi
   140001c57:	0f 85 7d fe ff ff    	jne    140001ada <_Z11GetCoreTypeB5cxx11v+0x12a>
   140001c5d:	e9 25 fe ff ff       	jmp    140001a87 <_Z11GetCoreTypeB5cxx11v+0xd7>
   140001c62:	48 89 c3             	mov    %rax,%rbx
   140001c65:	c5 f8 77             	vzeroupper
   140001c68:	48 8d 4c 24 60       	lea    0x60(%rsp),%rcx
   140001c6d:	e8 d6 00 00 00       	call   140001d48 <_ZNSt7__cxx1112basic_stringIcSt11char_traitsIcESaIcEED1Ev>
   140001c72:	48 89 e9             	mov    %rbp,%rcx
   140001c75:	e8 ce 00 00 00       	call   140001d48 <_ZNSt7__cxx1112basic_stringIcSt11char_traitsIcESaIcEED1Ev>
   140001c7a:	48 8d 4c 24 40       	lea    0x40(%rsp),%rcx
   140001c7f:	e8 4c 16 00 00       	call   1400032d0 <_ZNSt6vectorIhSaIhEED1Ev>
   140001c84:	48 89 d9             	mov    %rbx,%rcx
   140001c87:	e8 f4 11 00 00       	call   140002e80 <_Unwind_Resume>
   140001c8c:	48 89 c3             	mov    %rax,%rbx
   140001c8f:	48 8d 8c 24 e0 00 00 	lea    0xe0(%rsp),%rcx
   140001c96:	00 
   140001c97:	c5 f8 77             	vzeroupper
   140001c9a:	e8 a9 00 00 00       	call   140001d48 <_ZNSt7__cxx1112basic_stringIcSt11char_traitsIcESaIcEED1Ev>
   140001c9f:	48 89 d9             	mov    %rbx,%rcx
   140001ca2:	e8 d9 11 00 00       	call   140002e80 <_Unwind_Resume>
   140001ca7:	48 89 c3             	mov    %rax,%rbx
   140001caa:	c5 f8 77             	vzeroupper
   140001cad:	eb cb                	jmp    140001c7a <_Z11GetCoreTypeB5cxx11v+0x2ca>
   140001caf:	48 8d 8c 24 e0 00 00 	lea    0xe0(%rsp),%rcx
   140001cb6:	00 
   140001cb7:	48 89 c3             	mov    %rax,%rbx
   140001cba:	c5 f8 77             	vzeroupper
   140001cbd:	e8 86 00 00 00       	call   140001d48 <_ZNSt7__cxx1112basic_stringIcSt11char_traitsIcESaIcEED1Ev>
   140001cc2:	eb b6                	jmp    140001c7a <_Z11GetCoreTypeB5cxx11v+0x2ca>
   140001cc4:	eb e9                	jmp    140001caf <_Z11GetCoreTypeB5cxx11v+0x2ff>
   140001cc6:	eb e7                	jmp    140001caf <_Z11GetCoreTypeB5cxx11v+0x2ff>
   140001cc8:	48 8d 8c 24 e0 00 00 	lea    0xe0(%rsp),%rcx
   140001ccf:	00 
   140001cd0:	48 89 c6             	mov    %rax,%rsi
   140001cd3:	c5 f8 77             	vzeroupper
   140001cd6:	e8 6d 00 00 00       	call   140001d48 <_ZNSt7__cxx1112basic_stringIcSt11char_traitsIcESaIcEED1Ev>
   140001cdb:	48 8d 8c 24 a0 00 00 	lea    0xa0(%rsp),%rcx
   140001ce2:	00 
   140001ce3:	e8 60 00 00 00       	call   140001d48 <_ZNSt7__cxx1112basic_stringIcSt11char_traitsIcESaIcEED1Ev>
   140001ce8:	48 8d 8c 24 80 00 00 	lea    0x80(%rsp),%rcx
   140001cef:	00 
   140001cf0:	48 89 f3             	mov    %rsi,%rbx
   140001cf3:	e8 50 00 00 00       	call   140001d48 <_ZNSt7__cxx1112basic_stringIcSt11char_traitsIcESaIcEED1Ev>
   140001cf8:	e9 6b ff ff ff       	jmp    140001c68 <_Z11GetCoreTypeB5cxx11v+0x2b8>
   140001cfd:	48 89 c6             	mov    %rax,%rsi
   140001d00:	c5 f8 77             	vzeroupper
   140001d03:	eb d6                	jmp    140001cdb <_Z11GetCoreTypeB5cxx11v+0x32b>
   140001d05:	48 89 c6             	mov    %rax,%rsi
   140001d08:	c5 f8 77             	vzeroupper
   140001d0b:	eb db                	jmp    140001ce8 <_Z11GetCoreTypeB5cxx11v+0x338>
   140001d0d:	90                   	nop
   140001d0e:	90                   	nop
   140001d0f:	90                   	nop

0000000140001d10 <__gxx_personality_seh0>:
   140001d10:	ff 25 a2 77 40 00    	jmp    *0x4077a2(%rip)        # 1404094b8 <__imp___gxx_personality_seh0>
   140001d16:	90                   	nop
   140001d17:	90                   	nop

0000000140001d18 <_Znwy>:
   140001d18:	ff 25 92 77 40 00    	jmp    *0x407792(%rip)        # 1404094b0 <__imp__Znwy>
   140001d1e:	90                   	nop
   140001d1f:	90                   	nop

0000000140001d20 <_ZdlPvy>:
   140001d20:	ff 25 82 77 40 00    	jmp    *0x407782(%rip)        # 1404094a8 <__imp__ZdlPvy>
   140001d26:	90                   	nop
   140001d27:	90                   	nop

0000000140001d28 <_ZStlsIcSt11char_traitsIcESaIcEERSt13basic_ostreamIT_T0_ES7_RKNSt7__cxx1112basic_stringIS4_S5_T1_EE>:
   140001d28:	ff 25 72 77 40 00    	jmp    *0x407772(%rip)        # 1404094a0 <__imp__ZStlsIcSt11char_traitsIcESaIcEERSt13basic_ostreamIT_T0_ES7_RKNSt7__cxx1112basic_stringIS4_S5_T1_EE>
   140001d2e:	90                   	nop
   140001d2f:	90                   	nop

0000000140001d30 <_ZStlsISt11char_traitsIcEERSt13basic_ostreamIcT_ES5_PKc>:
   140001d30:	ff 25 62 77 40 00    	jmp    *0x407762(%rip)        # 140409498 <__imp__ZStlsISt11char_traitsIcEERSt13basic_ostreamIcT_ES5_PKc>
   140001d36:	90                   	nop
   140001d37:	90                   	nop

0000000140001d38 <_ZSt20__throw_length_errorPKc>:
   140001d38:	ff 25 4a 77 40 00    	jmp    *0x40774a(%rip)        # 140409488 <__imp__ZSt20__throw_length_errorPKc>
   140001d3e:	90                   	nop
   140001d3f:	90                   	nop

0000000140001d40 <_ZSt17__throw_bad_allocv>:
   140001d40:	ff 25 3a 77 40 00    	jmp    *0x40773a(%rip)        # 140409480 <__imp__ZSt17__throw_bad_allocv>
   140001d46:	90                   	nop
   140001d47:	90                   	nop

0000000140001d48 <_ZNSt7__cxx1112basic_stringIcSt11char_traitsIcESaIcEED1Ev>:
   140001d48:	ff 25 2a 77 40 00    	jmp    *0x40772a(%rip)        # 140409478 <__imp__ZNSt7__cxx1112basic_stringIcSt11char_traitsIcESaIcEED1Ev>
   140001d4e:	90                   	nop
   140001d4f:	90                   	nop

0000000140001d50 <_ZNSt7__cxx1112basic_stringIcSt11char_traitsIcESaIcEEC1Ev>:
   140001d50:	ff 25 1a 77 40 00    	jmp    *0x40771a(%rip)        # 140409470 <__imp__ZNSt7__cxx1112basic_stringIcSt11char_traitsIcESaIcEEC1Ev>
   140001d56:	90                   	nop
   140001d57:	90                   	nop

0000000140001d58 <_ZNSt7__cxx1112basic_stringIcSt11char_traitsIcESaIcEEC1EOS4_>:
   140001d58:	ff 25 0a 77 40 00    	jmp    *0x40770a(%rip)        # 140409468 <__imp__ZNSt7__cxx1112basic_stringIcSt11char_traitsIcESaIcEEC1EOS4_>
   140001d5e:	90                   	nop
   140001d5f:	90                   	nop

0000000140001d60 <_ZNSt7__cxx1112basic_stringIcSt11char_traitsIcESaIcEE7reserveEy>:
   140001d60:	ff 25 fa 76 40 00    	jmp    *0x4076fa(%rip)        # 140409460 <__imp__ZNSt7__cxx1112basic_stringIcSt11char_traitsIcESaIcEE7reserveEy>
   140001d66:	90                   	nop
   140001d67:	90                   	nop

0000000140001d68 <_ZNSt7__cxx1112basic_stringIcSt11char_traitsIcESaIcEE6insertEyRKS4_>:
   140001d68:	ff 25 ea 76 40 00    	jmp    *0x4076ea(%rip)        # 140409458 <__imp__ZNSt7__cxx1112basic_stringIcSt11char_traitsIcESaIcEE6insertEyRKS4_>
   140001d6e:	90                   	nop
   140001d6f:	90                   	nop

0000000140001d70 <_ZNSt7__cxx1112basic_stringIcSt11char_traitsIcESaIcEE6insertEyPKc>:
   140001d70:	ff 25 da 76 40 00    	jmp    *0x4076da(%rip)        # 140409450 <__imp__ZNSt7__cxx1112basic_stringIcSt11char_traitsIcESaIcEE6insertEyPKc>
   140001d76:	90                   	nop
   140001d77:	90                   	nop

0000000140001d78 <_ZNSt7__cxx1112basic_stringIcSt11char_traitsIcESaIcEE6appendERKS4_>:
   140001d78:	ff 25 ca 76 40 00    	jmp    *0x4076ca(%rip)        # 140409448 <__imp__ZNSt7__cxx1112basic_stringIcSt11char_traitsIcESaIcEE6appendERKS4_>
   140001d7e:	90                   	nop
   140001d7f:	90                   	nop

0000000140001d80 <_ZNSt7__cxx1112basic_stringIcSt11char_traitsIcESaIcEE6appendEPKc>:
   140001d80:	ff 25 ba 76 40 00    	jmp    *0x4076ba(%rip)        # 140409440 <__imp__ZNSt7__cxx1112basic_stringIcSt11char_traitsIcESaIcEE6appendEPKc>
   140001d86:	90                   	nop
   140001d87:	90                   	nop

0000000140001d88 <_ZNSt7__cxx1112basic_stringIcSt11char_traitsIcESaIcEE13_M_set_lengthEy>:
   140001d88:	ff 25 aa 76 40 00    	jmp    *0x4076aa(%rip)        # 140409438 <__imp__ZNSt7__cxx1112basic_stringIcSt11char_traitsIcESaIcEE13_M_set_lengthEy>
   140001d8e:	90                   	nop
   140001d8f:	90                   	nop

0000000140001d90 <_ZNSt6chrono3_V212system_clock3nowEv>:
   140001d90:	ff 25 9a 76 40 00    	jmp    *0x40769a(%rip)        # 140409430 <__imp__ZNSt6chrono3_V212system_clock3nowEv>
   140001d96:	90                   	nop
   140001d97:	90                   	nop

0000000140001d98 <_ZNSolsEx>:
   140001d98:	ff 25 8a 76 40 00    	jmp    *0x40768a(%rip)        # 140409428 <__imp__ZNSolsEx>
   140001d9e:	90                   	nop
   140001d9f:	90                   	nop

0000000140001da0 <_ZNSolsEd>:
   140001da0:	ff 25 7a 76 40 00    	jmp    *0x40767a(%rip)        # 140409420 <__imp__ZNSolsEd>
   140001da6:	90                   	nop
   140001da7:	90                   	nop

0000000140001da8 <_ZNKSt7__cxx1112basic_stringIcSt11char_traitsIcESaIcEE8capacityEv>:
   140001da8:	ff 25 6a 76 40 00    	jmp    *0x40766a(%rip)        # 140409418 <__imp__ZNKSt7__cxx1112basic_stringIcSt11char_traitsIcESaIcEE8capacityEv>
   140001dae:	90                   	nop
   140001daf:	90                   	nop

0000000140001db0 <_ZNKSt7__cxx1112basic_stringIcSt11char_traitsIcESaIcEE7_M_dataEv>:
   140001db0:	ff 25 5a 76 40 00    	jmp    *0x40765a(%rip)        # 140409410 <__imp__ZNKSt7__cxx1112basic_stringIcSt11char_traitsIcESaIcEE7_M_dataEv>
   140001db6:	90                   	nop
   140001db7:	90                   	nop

0000000140001db8 <_ZNKSt7__cxx1112basic_stringIcSt11char_traitsIcESaIcEE4sizeEv>:
   140001db8:	ff 25 4a 76 40 00    	jmp    *0x40764a(%rip)        # 140409408 <__imp__ZNKSt7__cxx1112basic_stringIcSt11char_traitsIcESaIcEE4sizeEv>
   140001dbe:	90                   	nop
   140001dbf:	90                   	nop

0000000140001dc0 <__do_global_dtors>:
   140001dc0:	48 83 ec 28          	sub    $0x28,%rsp
   140001dc4:	48 8b 05 35 22 00 00 	mov    0x2235(%rip),%rax        # 140004000 <__data_start__>
   140001dcb:	48 8b 00             	mov    (%rax),%rax
   140001dce:	48 85 c0             	test   %rax,%rax
   140001dd1:	74 2a                	je     140001dfd <__do_global_dtors+0x3d>
   140001dd3:	66 90                	xchg   %ax,%ax
   140001dd5:	66 66 2e 0f 1f 84 00 	data16 cs nopw 0x0(%rax,%rax,1)
   140001ddc:	00 00 00 00 
   140001de0:	ff d0                	call   *%rax
   140001de2:	48 8b 05 17 22 00 00 	mov    0x2217(%rip),%rax        # 140004000 <__data_start__>
   140001de9:	48 8d 50 08          	lea    0x8(%rax),%rdx
   140001ded:	48 8b 40 08          	mov    0x8(%rax),%rax
   140001df1:	48 89 15 08 22 00 00 	mov    %rdx,0x2208(%rip)        # 140004000 <__data_start__>
   140001df8:	48 85 c0             	test   %rax,%rax
   140001dfb:	75 e3                	jne    140001de0 <__do_global_dtors+0x20>
   140001dfd:	48 83 c4 28          	add    $0x28,%rsp
   140001e01:	c3                   	ret
   140001e02:	0f 1f 00             	nopl   (%rax)
   140001e05:	66 66 2e 0f 1f 84 00 	data16 cs nopw 0x0(%rax,%rax,1)
   140001e0c:	00 00 00 00 

0000000140001e10 <__do_global_ctors>:
   140001e10:	56                   	push   %rsi
   140001e11:	53                   	push   %rbx
   140001e12:	48 83 ec 28          	sub    $0x28,%rsp
   140001e16:	48 8b 15 f3 38 00 00 	mov    0x38f3(%rip),%rdx        # 140005710 <.refptr.__CTOR_LIST__>
   140001e1d:	48 8b 02             	mov    (%rdx),%rax
   140001e20:	89 c1                	mov    %eax,%ecx
   140001e22:	83 f8 ff             	cmp    $0xffffffff,%eax
   140001e25:	74 39                	je     140001e60 <__do_global_ctors+0x50>
   140001e27:	85 c9                	test   %ecx,%ecx
   140001e29:	74 20                	je     140001e4b <__do_global_ctors+0x3b>
   140001e2b:	89 c8                	mov    %ecx,%eax
   140001e2d:	83 e9 01             	sub    $0x1,%ecx
   140001e30:	48 8d 1c c2          	lea    (%rdx,%rax,8),%rbx
   140001e34:	48 29 c8             	sub    %rcx,%rax
   140001e37:	48 8d 74 c2 f8       	lea    -0x8(%rdx,%rax,8),%rsi
   140001e3c:	0f 1f 40 00          	nopl   0x0(%rax)
   140001e40:	ff 13                	call   *(%rbx)
   140001e42:	48 83 eb 08          	sub    $0x8,%rbx
   140001e46:	48 39 f3             	cmp    %rsi,%rbx
   140001e49:	75 f5                	jne    140001e40 <__do_global_ctors+0x30>
   140001e4b:	48 8d 0d 6e ff ff ff 	lea    -0x92(%rip),%rcx        # 140001dc0 <__do_global_dtors>
   140001e52:	48 83 c4 28          	add    $0x28,%rsp
   140001e56:	5b                   	pop    %rbx
   140001e57:	5e                   	pop    %rsi
   140001e58:	e9 c3 f5 ff ff       	jmp    140001420 <atexit>
   140001e5d:	0f 1f 00             	nopl   (%rax)
   140001e60:	31 c0                	xor    %eax,%eax
   140001e62:	0f 1f 00             	nopl   (%rax)
   140001e65:	66 66 2e 0f 1f 84 00 	data16 cs nopw 0x0(%rax,%rax,1)
   140001e6c:	00 00 00 00 
   140001e70:	44 8d 40 01          	lea    0x1(%rax),%r8d
   140001e74:	89 c1                	mov    %eax,%ecx
   140001e76:	4c 89 c0             	mov    %r8,%rax
   140001e79:	4a 83 3c c2 00       	cmpq   $0x0,(%rdx,%r8,8)
   140001e7e:	75 f0                	jne    140001e70 <__do_global_ctors+0x60>
   140001e80:	eb a5                	jmp    140001e27 <__do_global_ctors+0x17>
   140001e82:	0f 1f 00             	nopl   (%rax)
   140001e85:	66 66 2e 0f 1f 84 00 	data16 cs nopw 0x0(%rax,%rax,1)
   140001e8c:	00 00 00 00 

0000000140001e90 <__main>:
   140001e90:	8b 05 aa 61 40 00    	mov    0x4061aa(%rip),%eax        # 140408040 <initialized>
   140001e96:	85 c0                	test   %eax,%eax
   140001e98:	74 06                	je     140001ea0 <__main+0x10>
   140001e9a:	c3                   	ret
   140001e9b:	0f 1f 44 00 00       	nopl   0x0(%rax,%rax,1)
   140001ea0:	c7 05 96 61 40 00 01 	movl   $0x1,0x406196(%rip)        # 140408040 <initialized>
   140001ea7:	00 00 00 
   140001eaa:	e9 61 ff ff ff       	jmp    140001e10 <__do_global_ctors>
   140001eaf:	90                   	nop

0000000140001eb0 <_setargv>:
   140001eb0:	31 c0                	xor    %eax,%eax
   140001eb2:	c3                   	ret
   140001eb3:	90                   	nop
   140001eb4:	90                   	nop
   140001eb5:	90                   	nop
   140001eb6:	90                   	nop
   140001eb7:	90                   	nop
   140001eb8:	90                   	nop
   140001eb9:	90                   	nop
   140001eba:	90                   	nop
   140001ebb:	90                   	nop
   140001ebc:	90                   	nop
   140001ebd:	90                   	nop
   140001ebe:	90                   	nop
   140001ebf:	90                   	nop

0000000140001ec0 <__dyn_tls_dtor>:
   140001ec0:	83 fa 03             	cmp    $0x3,%edx
   140001ec3:	74 0b                	je     140001ed0 <__dyn_tls_dtor+0x10>
   140001ec5:	85 d2                	test   %edx,%edx
   140001ec7:	74 07                	je     140001ed0 <__dyn_tls_dtor+0x10>
   140001ec9:	c3                   	ret
   140001eca:	66 0f 1f 44 00 00    	nopw   0x0(%rax,%rax,1)
   140001ed0:	e9 9b 0a 00 00       	jmp    140002970 <__mingw_TLScallback>
   140001ed5:	66 66 2e 0f 1f 84 00 	data16 cs nopw 0x0(%rax,%rax,1)
   140001edc:	00 00 00 00 

0000000140001ee0 <__dyn_tls_init>:
   140001ee0:	56                   	push   %rsi
   140001ee1:	53                   	push   %rbx
   140001ee2:	48 83 ec 28          	sub    $0x28,%rsp
   140001ee6:	48 8b 05 f3 37 00 00 	mov    0x37f3(%rip),%rax        # 1400056e0 <.refptr._CRT_MT>
   140001eed:	83 38 02             	cmpl   $0x2,(%rax)
   140001ef0:	74 06                	je     140001ef8 <__dyn_tls_init+0x18>
   140001ef2:	c7 00 02 00 00 00    	movl   $0x2,(%rax)
   140001ef8:	83 fa 02             	cmp    $0x2,%edx
   140001efb:	74 13                	je     140001f10 <__dyn_tls_init+0x30>
   140001efd:	83 fa 01             	cmp    $0x1,%edx
   140001f00:	74 4e                	je     140001f50 <__dyn_tls_init+0x70>
   140001f02:	48 83 c4 28          	add    $0x28,%rsp
   140001f06:	5b                   	pop    %rbx
   140001f07:	5e                   	pop    %rsi
   140001f08:	c3                   	ret
   140001f09:	0f 1f 80 00 00 00 00 	nopl   0x0(%rax)
   140001f10:	48 8d 1d 51 40 00 00 	lea    0x4051(%rip),%rbx        # 140005f68 <__xd_z>
   140001f17:	48 8d 35 4a 40 00 00 	lea    0x404a(%rip),%rsi        # 140005f68 <__xd_z>
   140001f1e:	48 39 f3             	cmp    %rsi,%rbx
   140001f21:	74 df                	je     140001f02 <__dyn_tls_init+0x22>
   140001f23:	66 90                	xchg   %ax,%ax
   140001f25:	66 66 2e 0f 1f 84 00 	data16 cs nopw 0x0(%rax,%rax,1)
   140001f2c:	00 00 00 00 
   140001f30:	48 8b 03             	mov    (%rbx),%rax
   140001f33:	48 85 c0             	test   %rax,%rax
   140001f36:	74 02                	je     140001f3a <__dyn_tls_init+0x5a>
   140001f38:	ff d0                	call   *%rax
   140001f3a:	48 83 c3 08          	add    $0x8,%rbx
   140001f3e:	48 39 f3             	cmp    %rsi,%rbx
   140001f41:	75 ed                	jne    140001f30 <__dyn_tls_init+0x50>
   140001f43:	48 83 c4 28          	add    $0x28,%rsp
   140001f47:	5b                   	pop    %rbx
   140001f48:	5e                   	pop    %rsi
   140001f49:	c3                   	ret
   140001f4a:	66 0f 1f 44 00 00    	nopw   0x0(%rax,%rax,1)
   140001f50:	48 83 c4 28          	add    $0x28,%rsp
   140001f54:	5b                   	pop    %rbx
   140001f55:	5e                   	pop    %rsi
   140001f56:	e9 15 0a 00 00       	jmp    140002970 <__mingw_TLScallback>
   140001f5b:	0f 1f 44 00 00       	nopl   0x0(%rax,%rax,1)

0000000140001f60 <__tlregdtor>:
   140001f60:	31 c0                	xor    %eax,%eax
   140001f62:	c3                   	ret
   140001f63:	90                   	nop
   140001f64:	90                   	nop
   140001f65:	90                   	nop
   140001f66:	90                   	nop
   140001f67:	90                   	nop
   140001f68:	90                   	nop
   140001f69:	90                   	nop
   140001f6a:	90                   	nop
   140001f6b:	90                   	nop
   140001f6c:	90                   	nop
   140001f6d:	90                   	nop
   140001f6e:	90                   	nop
   140001f6f:	90                   	nop

0000000140001f70 <_matherr>:
   140001f70:	56                   	push   %rsi
   140001f71:	53                   	push   %rbx
   140001f72:	48 83 ec 78          	sub    $0x78,%rsp
   140001f76:	0f 11 74 24 40       	movups %xmm6,0x40(%rsp)
   140001f7b:	0f 11 7c 24 50       	movups %xmm7,0x50(%rsp)
   140001f80:	44 0f 11 44 24 60    	movups %xmm8,0x60(%rsp)
   140001f86:	83 39 06             	cmpl   $0x6,(%rcx)
   140001f89:	0f 87 cd 00 00 00    	ja     14000205c <_matherr+0xec>
   140001f8f:	8b 01                	mov    (%rcx),%eax
   140001f91:	48 8d 15 8c 35 00 00 	lea    0x358c(%rip),%rdx        # 140005524 <.rdata+0x124>
   140001f98:	48 63 04 82          	movslq (%rdx,%rax,4),%rax
   140001f9c:	48 01 d0             	add    %rdx,%rax
   140001f9f:	ff e0                	jmp    *%rax
   140001fa1:	0f 1f 80 00 00 00 00 	nopl   0x0(%rax)
   140001fa8:	48 8d 1d 70 34 00 00 	lea    0x3470(%rip),%rbx        # 14000541f <.rdata+0x1f>
   140001faf:	f2 44 0f 10 41 20    	movsd  0x20(%rcx),%xmm8
   140001fb5:	f2 0f 10 79 18       	movsd  0x18(%rcx),%xmm7
   140001fba:	f2 0f 10 71 10       	movsd  0x10(%rcx),%xmm6
   140001fbf:	48 8b 71 08          	mov    0x8(%rcx),%rsi
   140001fc3:	b9 02 00 00 00       	mov    $0x2,%ecx
   140001fc8:	e8 b3 0f 00 00       	call   140002f80 <__acrt_iob_func>
   140001fcd:	f2 44 0f 11 44 24 30 	movsd  %xmm8,0x30(%rsp)
   140001fd4:	49 89 d8             	mov    %rbx,%r8
   140001fd7:	48 8d 15 1a 35 00 00 	lea    0x351a(%rip),%rdx        # 1400054f8 <.rdata+0xf8>
   140001fde:	f2 0f 11 7c 24 28    	movsd  %xmm7,0x28(%rsp)
   140001fe4:	49 89 f1             	mov    %rsi,%r9
   140001fe7:	48 89 c1             	mov    %rax,%rcx
   140001fea:	f2 0f 11 74 24 20    	movsd  %xmm6,0x20(%rsp)
   140001ff0:	e8 13 10 00 00       	call   140003008 <fprintf>
   140001ff5:	90                   	nop
   140001ff6:	0f 10 74 24 40       	movups 0x40(%rsp),%xmm6
   140001ffb:	0f 10 7c 24 50       	movups 0x50(%rsp),%xmm7
   140002000:	31 c0                	xor    %eax,%eax
   140002002:	44 0f 10 44 24 60    	movups 0x60(%rsp),%xmm8
   140002008:	48 83 c4 78          	add    $0x78,%rsp
   14000200c:	5b                   	pop    %rbx
   14000200d:	5e                   	pop    %rsi
   14000200e:	c3                   	ret
   14000200f:	90                   	nop
   140002010:	48 8d 1d e9 33 00 00 	lea    0x33e9(%rip),%rbx        # 140005400 <.rdata>
   140002017:	eb 96                	jmp    140001faf <_matherr+0x3f>
   140002019:	0f 1f 80 00 00 00 00 	nopl   0x0(%rax)
   140002020:	48 8d 1d 39 34 00 00 	lea    0x3439(%rip),%rbx        # 140005460 <.rdata+0x60>
   140002027:	eb 86                	jmp    140001faf <_matherr+0x3f>
   140002029:	0f 1f 80 00 00 00 00 	nopl   0x0(%rax)
   140002030:	48 8d 1d 09 34 00 00 	lea    0x3409(%rip),%rbx        # 140005440 <.rdata+0x40>
   140002037:	e9 73 ff ff ff       	jmp    140001faf <_matherr+0x3f>
   14000203c:	0f 1f 40 00          	nopl   0x0(%rax)
   140002040:	48 8d 1d 69 34 00 00 	lea    0x3469(%rip),%rbx        # 1400054b0 <.rdata+0xb0>
   140002047:	e9 63 ff ff ff       	jmp    140001faf <_matherr+0x3f>
   14000204c:	0f 1f 40 00          	nopl   0x0(%rax)
   140002050:	48 8d 1d 31 34 00 00 	lea    0x3431(%rip),%rbx        # 140005488 <.rdata+0x88>
   140002057:	e9 53 ff ff ff       	jmp    140001faf <_matherr+0x3f>
   14000205c:	48 8d 1d 83 34 00 00 	lea    0x3483(%rip),%rbx        # 1400054e6 <.rdata+0xe6>
   140002063:	e9 47 ff ff ff       	jmp    140001faf <_matherr+0x3f>
   140002068:	90                   	nop
   140002069:	90                   	nop
   14000206a:	90                   	nop
   14000206b:	90                   	nop
   14000206c:	90                   	nop
   14000206d:	90                   	nop
   14000206e:	90                   	nop
   14000206f:	90                   	nop

0000000140002070 <__report_error>:
   140002070:	56                   	push   %rsi
   140002071:	53                   	push   %rbx
   140002072:	48 83 ec 38          	sub    $0x38,%rsp
   140002076:	48 89 cb             	mov    %rcx,%rbx
   140002079:	48 8d 44 24 58       	lea    0x58(%rsp),%rax
   14000207e:	b9 02 00 00 00       	mov    $0x2,%ecx
   140002083:	4c 89 44 24 60       	mov    %r8,0x60(%rsp)
   140002088:	4c 89 4c 24 68       	mov    %r9,0x68(%rsp)
   14000208d:	48 89 54 24 58       	mov    %rdx,0x58(%rsp)
   140002092:	48 89 44 24 28       	mov    %rax,0x28(%rsp)
   140002097:	e8 e4 0e 00 00       	call   140002f80 <__acrt_iob_func>
   14000209c:	48 8d 15 9d 34 00 00 	lea    0x349d(%rip),%rdx        # 140005540 <.rdata>
   1400020a3:	48 89 c1             	mov    %rax,%rcx
   1400020a6:	e8 5d 0f 00 00       	call   140003008 <fprintf>
   1400020ab:	48 8b 74 24 28       	mov    0x28(%rsp),%rsi
   1400020b0:	b9 02 00 00 00       	mov    $0x2,%ecx
   1400020b5:	e8 c6 0e 00 00       	call   140002f80 <__acrt_iob_func>
   1400020ba:	48 89 da             	mov    %rbx,%rdx
   1400020bd:	49 89 f0             	mov    %rsi,%r8
   1400020c0:	48 89 c1             	mov    %rax,%rcx
   1400020c3:	e8 80 0f 00 00       	call   140003048 <vfprintf>
   1400020c8:	e8 1b 0f 00 00       	call   140002fe8 <abort>
   1400020cd:	90                   	nop
   1400020ce:	66 90                	xchg   %ax,%ax

00000001400020d0 <mark_section_writable>:
   1400020d0:	57                   	push   %rdi
   1400020d1:	56                   	push   %rsi
   1400020d2:	53                   	push   %rbx
   1400020d3:	48 83 ec 50          	sub    $0x50,%rsp
   1400020d7:	48 63 35 d6 5f 40 00 	movslq 0x405fd6(%rip),%rsi        # 1404080b4 <maxSections>
   1400020de:	48 89 cb             	mov    %rcx,%rbx
   1400020e1:	85 f6                	test   %esi,%esi
   1400020e3:	0f 8e 17 01 00 00    	jle    140002200 <mark_section_writable+0x130>
   1400020e9:	48 8b 05 c8 5f 40 00 	mov    0x405fc8(%rip),%rax        # 1404080b8 <the_secs>
   1400020f0:	45 31 c9             	xor    %r9d,%r9d
   1400020f3:	48 83 c0 18          	add    $0x18,%rax
   1400020f7:	66 0f 1f 84 00 00 00 	nopw   0x0(%rax,%rax,1)
   1400020fe:	00 00 
   140002100:	4c 8b 00             	mov    (%rax),%r8
   140002103:	4c 39 c3             	cmp    %r8,%rbx
   140002106:	72 13                	jb     14000211b <mark_section_writable+0x4b>
   140002108:	48 8b 50 08          	mov    0x8(%rax),%rdx
   14000210c:	8b 52 08             	mov    0x8(%rdx),%edx
   14000210f:	49 01 d0             	add    %rdx,%r8
   140002112:	4c 39 c3             	cmp    %r8,%rbx
   140002115:	0f 82 8a 00 00 00    	jb     1400021a5 <mark_section_writable+0xd5>
   14000211b:	41 83 c1 01          	add    $0x1,%r9d
   14000211f:	48 83 c0 28          	add    $0x28,%rax
   140002123:	41 39 f1             	cmp    %esi,%r9d
   140002126:	75 d8                	jne    140002100 <mark_section_writable+0x30>
   140002128:	48 89 d9             	mov    %rbx,%rcx
   14000212b:	e8 80 0a 00 00       	call   140002bb0 <__mingw_GetSectionForAddress>
   140002130:	48 89 c7             	mov    %rax,%rdi
   140002133:	48 85 c0             	test   %rax,%rax
   140002136:	0f 84 e6 00 00 00    	je     140002222 <mark_section_writable+0x152>
   14000213c:	48 8b 05 75 5f 40 00 	mov    0x405f75(%rip),%rax        # 1404080b8 <the_secs>
   140002143:	48 8d 1c b6          	lea    (%rsi,%rsi,4),%rbx
   140002147:	48 c1 e3 03          	shl    $0x3,%rbx
   14000214b:	48 01 d8             	add    %rbx,%rax
   14000214e:	48 89 78 20          	mov    %rdi,0x20(%rax)
   140002152:	c7 00 00 00 00 00    	movl   $0x0,(%rax)
   140002158:	e8 93 0b 00 00       	call   140002cf0 <_GetPEImageBase>
   14000215d:	8b 57 0c             	mov    0xc(%rdi),%edx
   140002160:	41 b8 30 00 00 00    	mov    $0x30,%r8d
   140002166:	48 8d 0c 10          	lea    (%rax,%rdx,1),%rcx
   14000216a:	48 8b 05 47 5f 40 00 	mov    0x405f47(%rip),%rax        # 1404080b8 <the_secs>
   140002171:	48 8d 54 24 20       	lea    0x20(%rsp),%rdx
   140002176:	48 89 4c 18 18       	mov    %rcx,0x18(%rax,%rbx,1)
   14000217b:	ff 15 97 71 40 00    	call   *0x407197(%rip)        # 140409318 <__imp_VirtualQuery>
   140002181:	48 85 c0             	test   %rax,%rax
   140002184:	0f 84 7d 00 00 00    	je     140002207 <mark_section_writable+0x137>
   14000218a:	8b 44 24 44          	mov    0x44(%rsp),%eax
   14000218e:	8d 50 fc             	lea    -0x4(%rax),%edx
   140002191:	83 e2 fb             	and    $0xfffffffb,%edx
   140002194:	74 08                	je     14000219e <mark_section_writable+0xce>
   140002196:	8d 50 c0             	lea    -0x40(%rax),%edx
   140002199:	83 e2 bf             	and    $0xffffffbf,%edx
   14000219c:	75 12                	jne    1400021b0 <mark_section_writable+0xe0>
   14000219e:	83 05 0f 5f 40 00 01 	addl   $0x1,0x405f0f(%rip)        # 1404080b4 <maxSections>
   1400021a5:	48 83 c4 50          	add    $0x50,%rsp
   1400021a9:	5b                   	pop    %rbx
   1400021aa:	5e                   	pop    %rsi
   1400021ab:	5f                   	pop    %rdi
   1400021ac:	c3                   	ret
   1400021ad:	0f 1f 00             	nopl   (%rax)
   1400021b0:	83 f8 02             	cmp    $0x2,%eax
   1400021b3:	48 8b 4c 24 20       	mov    0x20(%rsp),%rcx
   1400021b8:	48 8b 54 24 38       	mov    0x38(%rsp),%rdx
   1400021bd:	41 b8 40 00 00 00    	mov    $0x40,%r8d
   1400021c3:	b8 04 00 00 00       	mov    $0x4,%eax
   1400021c8:	44 0f 44 c0          	cmove  %eax,%r8d
   1400021cc:	48 03 1d e5 5e 40 00 	add    0x405ee5(%rip),%rbx        # 1404080b8 <the_secs>
   1400021d3:	48 89 4b 08          	mov    %rcx,0x8(%rbx)
   1400021d7:	49 89 d9             	mov    %rbx,%r9
   1400021da:	48 89 53 10          	mov    %rdx,0x10(%rbx)
   1400021de:	ff 15 2c 71 40 00    	call   *0x40712c(%rip)        # 140409310 <__imp_VirtualProtect>
   1400021e4:	85 c0                	test   %eax,%eax
   1400021e6:	75 b6                	jne    14000219e <mark_section_writable+0xce>
   1400021e8:	ff 15 e2 70 40 00    	call   *0x4070e2(%rip)        # 1404092d0 <__imp_GetLastError>
   1400021ee:	48 8d 0d c3 33 00 00 	lea    0x33c3(%rip),%rcx        # 1400055b8 <.rdata+0x78>
   1400021f5:	89 c2                	mov    %eax,%edx
   1400021f7:	e8 74 fe ff ff       	call   140002070 <__report_error>
   1400021fc:	0f 1f 40 00          	nopl   0x0(%rax)
   140002200:	31 f6                	xor    %esi,%esi
   140002202:	e9 21 ff ff ff       	jmp    140002128 <mark_section_writable+0x58>
   140002207:	48 8b 05 aa 5e 40 00 	mov    0x405eaa(%rip),%rax        # 1404080b8 <the_secs>
   14000220e:	8b 57 08             	mov    0x8(%rdi),%edx
   140002211:	48 8d 0d 68 33 00 00 	lea    0x3368(%rip),%rcx        # 140005580 <.rdata+0x40>
   140002218:	4c 8b 44 18 18       	mov    0x18(%rax,%rbx,1),%r8
   14000221d:	e8 4e fe ff ff       	call   140002070 <__report_error>
   140002222:	48 89 da             	mov    %rbx,%rdx
   140002225:	48 8d 0d 34 33 00 00 	lea    0x3334(%rip),%rcx        # 140005560 <.rdata+0x20>
   14000222c:	e8 3f fe ff ff       	call   140002070 <__report_error>
   140002231:	90                   	nop
   140002232:	0f 1f 00             	nopl   (%rax)
   140002235:	66 66 2e 0f 1f 84 00 	data16 cs nopw 0x0(%rax,%rax,1)
   14000223c:	00 00 00 00 

0000000140002240 <_pei386_runtime_relocator>:
   140002240:	55                   	push   %rbp
   140002241:	41 57                	push   %r15
   140002243:	41 56                	push   %r14
   140002245:	41 55                	push   %r13
   140002247:	41 54                	push   %r12
   140002249:	57                   	push   %rdi
   14000224a:	56                   	push   %rsi
   14000224b:	53                   	push   %rbx
   14000224c:	48 83 ec 48          	sub    $0x48,%rsp
   140002250:	48 8d 6c 24 40       	lea    0x40(%rsp),%rbp
   140002255:	8b 35 55 5e 40 00    	mov    0x405e55(%rip),%esi        # 1404080b0 <was_init.0>
   14000225b:	85 f6                	test   %esi,%esi
   14000225d:	74 11                	je     140002270 <_pei386_runtime_relocator+0x30>
   14000225f:	48 8d 65 08          	lea    0x8(%rbp),%rsp
   140002263:	5b                   	pop    %rbx
   140002264:	5e                   	pop    %rsi
   140002265:	5f                   	pop    %rdi
   140002266:	41 5c                	pop    %r12
   140002268:	41 5d                	pop    %r13
   14000226a:	41 5e                	pop    %r14
   14000226c:	41 5f                	pop    %r15
   14000226e:	5d                   	pop    %rbp
   14000226f:	c3                   	ret
   140002270:	c7 05 36 5e 40 00 01 	movl   $0x1,0x405e36(%rip)        # 1404080b0 <was_init.0>
   140002277:	00 00 00 
   14000227a:	e8 b1 09 00 00       	call   140002c30 <__mingw_GetSectionCount>
   14000227f:	48 98                	cltq
   140002281:	48 8d 04 80          	lea    (%rax,%rax,4),%rax
   140002285:	48 8d 04 c5 0f 00 00 	lea    0xf(,%rax,8),%rax
   14000228c:	00 
   14000228d:	48 83 e0 f0          	and    $0xfffffffffffffff0,%rax
   140002291:	e8 fa 0b 00 00       	call   140002e90 <___chkstk_ms>
   140002296:	48 8b 3d 93 34 00 00 	mov    0x3493(%rip),%rdi        # 140005730 <.refptr.__RUNTIME_PSEUDO_RELOC_LIST_END__>
   14000229d:	48 8b 1d 9c 34 00 00 	mov    0x349c(%rip),%rbx        # 140005740 <.refptr.__RUNTIME_PSEUDO_RELOC_LIST__>
   1400022a4:	48 29 c4             	sub    %rax,%rsp
   1400022a7:	c7 05 03 5e 40 00 00 	movl   $0x0,0x405e03(%rip)        # 1404080b4 <maxSections>
   1400022ae:	00 00 00 
   1400022b1:	48 8d 44 24 30       	lea    0x30(%rsp),%rax
   1400022b6:	48 89 05 fb 5d 40 00 	mov    %rax,0x405dfb(%rip)        # 1404080b8 <the_secs>
   1400022bd:	48 89 f8             	mov    %rdi,%rax
   1400022c0:	48 29 d8             	sub    %rbx,%rax
   1400022c3:	48 83 f8 07          	cmp    $0x7,%rax
   1400022c7:	7e 96                	jle    14000225f <_pei386_runtime_relocator+0x1f>
   1400022c9:	48 83 f8 0b          	cmp    $0xb,%rax
   1400022cd:	0f 8f 85 01 00 00    	jg     140002458 <_pei386_runtime_relocator+0x218>
   1400022d3:	8b 13                	mov    (%rbx),%edx
   1400022d5:	85 d2                	test   %edx,%edx
   1400022d7:	0f 85 90 01 00 00    	jne    14000246d <_pei386_runtime_relocator+0x22d>
   1400022dd:	8b 43 04             	mov    0x4(%rbx),%eax
   1400022e0:	85 c0                	test   %eax,%eax
   1400022e2:	0f 85 85 01 00 00    	jne    14000246d <_pei386_runtime_relocator+0x22d>
   1400022e8:	8b 53 08             	mov    0x8(%rbx),%edx
   1400022eb:	83 fa 01             	cmp    $0x1,%edx
   1400022ee:	0f 85 cf 02 00 00    	jne    1400025c3 <_pei386_runtime_relocator+0x383>
   1400022f4:	48 83 c3 0c          	add    $0xc,%rbx
   1400022f8:	4c 8b 35 21 34 00 00 	mov    0x3421(%rip),%r14        # 140005720 <.refptr.__ImageBase>
   1400022ff:	4c 8d 65 f8          	lea    -0x8(%rbp),%r12
   140002303:	48 39 fb             	cmp    %rdi,%rbx
   140002306:	72 7c                	jb     140002384 <_pei386_runtime_relocator+0x144>
   140002308:	e9 52 ff ff ff       	jmp    14000225f <_pei386_runtime_relocator+0x1f>
   14000230d:	0f 1f 00             	nopl   (%rax)
   140002310:	83 fa 08             	cmp    $0x8,%edx
   140002313:	0f 84 1f 02 00 00    	je     140002538 <_pei386_runtime_relocator+0x2f8>
   140002319:	83 fa 10             	cmp    $0x10,%edx
   14000231c:	0f 85 79 02 00 00    	jne    14000259b <_pei386_runtime_relocator+0x35b>
   140002322:	41 0f b7 07          	movzwl (%r15),%eax
   140002326:	66 85 c0             	test   %ax,%ax
   140002329:	79 06                	jns    140002331 <_pei386_runtime_relocator+0xf1>
   14000232b:	48 0d 00 00 ff ff    	or     $0xffffffffffff0000,%rax
   140002331:	4c 29 c0             	sub    %r8,%rax
   140002334:	4c 01 c8             	add    %r9,%rax
   140002337:	81 e1 c0 00 00 00    	and    $0xc0,%ecx
   14000233d:	48 89 45 f8          	mov    %rax,-0x8(%rbp)
   140002341:	75 18                	jne    14000235b <_pei386_runtime_relocator+0x11b>
   140002343:	48 3d ff ff 00 00    	cmp    $0xffff,%rax
   140002349:	0f 8f 60 02 00 00    	jg     1400025af <_pei386_runtime_relocator+0x36f>
   14000234f:	48 3d 00 80 ff ff    	cmp    $0xffffffffffff8000,%rax
   140002355:	0f 8c 54 02 00 00    	jl     1400025af <_pei386_runtime_relocator+0x36f>
   14000235b:	4c 89 f9             	mov    %r15,%rcx
   14000235e:	4d 89 e5             	mov    %r12,%r13
   140002361:	e8 6a fd ff ff       	call   1400020d0 <mark_section_writable>
   140002366:	41 b8 02 00 00 00    	mov    $0x2,%r8d
   14000236c:	4c 89 e2             	mov    %r12,%rdx
   14000236f:	4c 89 f9             	mov    %r15,%rcx
   140002372:	e8 a9 0c 00 00       	call   140003020 <memcpy>
   140002377:	48 83 c3 0c          	add    $0xc,%rbx
   14000237b:	48 39 fb             	cmp    %rdi,%rbx
   14000237e:	0f 83 7c 00 00 00    	jae    140002400 <_pei386_runtime_relocator+0x1c0>
   140002384:	44 8b 03             	mov    (%rbx),%r8d
   140002387:	8b 4b 08             	mov    0x8(%rbx),%ecx
   14000238a:	44 8b 7b 04          	mov    0x4(%rbx),%r15d
   14000238e:	4d 01 f0             	add    %r14,%r8
   140002391:	0f b6 d1             	movzbl %cl,%edx
   140002394:	4d 8b 08             	mov    (%r8),%r9
   140002397:	4d 01 f7             	add    %r14,%r15
   14000239a:	83 fa 20             	cmp    $0x20,%edx
   14000239d:	0f 84 2d 01 00 00    	je     1400024d0 <_pei386_runtime_relocator+0x290>
   1400023a3:	0f 86 67 ff ff ff    	jbe    140002310 <_pei386_runtime_relocator+0xd0>
   1400023a9:	83 fa 40             	cmp    $0x40,%edx
   1400023ac:	0f 85 e9 01 00 00    	jne    14000259b <_pei386_runtime_relocator+0x35b>
   1400023b2:	49 8b 07             	mov    (%r15),%rax
   1400023b5:	4c 29 c0             	sub    %r8,%rax
   1400023b8:	4c 01 c8             	add    %r9,%rax
   1400023bb:	81 e1 c0 00 00 00    	and    $0xc0,%ecx
   1400023c1:	48 89 45 f8          	mov    %rax,-0x8(%rbp)
   1400023c5:	75 09                	jne    1400023d0 <_pei386_runtime_relocator+0x190>
   1400023c7:	48 85 c0             	test   %rax,%rax
   1400023ca:	0f 89 df 01 00 00    	jns    1400025af <_pei386_runtime_relocator+0x36f>
   1400023d0:	4c 89 f9             	mov    %r15,%rcx
   1400023d3:	48 83 c3 0c          	add    $0xc,%rbx
   1400023d7:	4d 89 e5             	mov    %r12,%r13
   1400023da:	e8 f1 fc ff ff       	call   1400020d0 <mark_section_writable>
   1400023df:	41 b8 08 00 00 00    	mov    $0x8,%r8d
   1400023e5:	4c 89 e2             	mov    %r12,%rdx
   1400023e8:	4c 89 f9             	mov    %r15,%rcx
   1400023eb:	e8 30 0c 00 00       	call   140003020 <memcpy>
   1400023f0:	48 39 fb             	cmp    %rdi,%rbx
   1400023f3:	72 8f                	jb     140002384 <_pei386_runtime_relocator+0x144>
   1400023f5:	66 66 2e 0f 1f 84 00 	data16 cs nopw 0x0(%rax,%rax,1)
   1400023fc:	00 00 00 00 
   140002400:	8b 05 ae 5c 40 00    	mov    0x405cae(%rip),%eax        # 1404080b4 <maxSections>
   140002406:	85 c0                	test   %eax,%eax
   140002408:	0f 8e 51 fe ff ff    	jle    14000225f <_pei386_runtime_relocator+0x1f>
   14000240e:	48 8b 3d fb 6e 40 00 	mov    0x406efb(%rip),%rdi        # 140409310 <__imp_VirtualProtect>
   140002415:	31 db                	xor    %ebx,%ebx
   140002417:	66 0f 1f 84 00 00 00 	nopw   0x0(%rax,%rax,1)
   14000241e:	00 00 
   140002420:	48 8b 05 91 5c 40 00 	mov    0x405c91(%rip),%rax        # 1404080b8 <the_secs>
   140002427:	48 01 d8             	add    %rbx,%rax
   14000242a:	44 8b 00             	mov    (%rax),%r8d
   14000242d:	45 85 c0             	test   %r8d,%r8d
   140002430:	74 0d                	je     14000243f <_pei386_runtime_relocator+0x1ff>
   140002432:	48 8b 50 10          	mov    0x10(%rax),%rdx
   140002436:	48 8b 48 08          	mov    0x8(%rax),%rcx
   14000243a:	4d 89 e9             	mov    %r13,%r9
   14000243d:	ff d7                	call   *%rdi
   14000243f:	83 c6 01             	add    $0x1,%esi
   140002442:	48 83 c3 28          	add    $0x28,%rbx
   140002446:	3b 35 68 5c 40 00    	cmp    0x405c68(%rip),%esi        # 1404080b4 <maxSections>
   14000244c:	7c d2                	jl     140002420 <_pei386_runtime_relocator+0x1e0>
   14000244e:	e9 0c fe ff ff       	jmp    14000225f <_pei386_runtime_relocator+0x1f>
   140002453:	0f 1f 44 00 00       	nopl   0x0(%rax,%rax,1)
   140002458:	44 8b 0b             	mov    (%rbx),%r9d
   14000245b:	45 85 c9             	test   %r9d,%r9d
   14000245e:	75 0d                	jne    14000246d <_pei386_runtime_relocator+0x22d>
   140002460:	44 8b 43 04          	mov    0x4(%rbx),%r8d
   140002464:	45 85 c0             	test   %r8d,%r8d
   140002467:	0f 84 1a 01 00 00    	je     140002587 <_pei386_runtime_relocator+0x347>
   14000246d:	48 39 fb             	cmp    %rdi,%rbx
   140002470:	0f 83 e9 fd ff ff    	jae    14000225f <_pei386_runtime_relocator+0x1f>
   140002476:	4c 8b 35 a3 32 00 00 	mov    0x32a3(%rip),%r14        # 140005720 <.refptr.__ImageBase>
   14000247d:	4c 8d 6d f8          	lea    -0x8(%rbp),%r13
   140002481:	0f 1f 40 00          	nopl   0x0(%rax)
   140002485:	66 66 2e 0f 1f 84 00 	data16 cs nopw 0x0(%rax,%rax,1)
   14000248c:	00 00 00 00 
   140002490:	44 8b 63 04          	mov    0x4(%rbx),%r12d
   140002494:	8b 03                	mov    (%rbx),%eax
   140002496:	48 83 c3 08          	add    $0x8,%rbx
   14000249a:	43 03 04 26          	add    (%r14,%r12,1),%eax
   14000249e:	4b 8d 0c 34          	lea    (%r12,%r14,1),%rcx
   1400024a2:	89 45 f8             	mov    %eax,-0x8(%rbp)
   1400024a5:	e8 26 fc ff ff       	call   1400020d0 <mark_section_writable>
   1400024aa:	41 b8 04 00 00 00    	mov    $0x4,%r8d
   1400024b0:	4c 89 ea             	mov    %r13,%rdx
   1400024b3:	4b 8d 0c 34          	lea    (%r12,%r14,1),%rcx
   1400024b7:	e8 64 0b 00 00       	call   140003020 <memcpy>
   1400024bc:	48 39 fb             	cmp    %rdi,%rbx
   1400024bf:	72 cf                	jb     140002490 <_pei386_runtime_relocator+0x250>
   1400024c1:	e9 3a ff ff ff       	jmp    140002400 <_pei386_runtime_relocator+0x1c0>
   1400024c6:	66 2e 0f 1f 84 00 00 	cs nopw 0x0(%rax,%rax,1)
   1400024cd:	00 00 00 
   1400024d0:	41 8b 07             	mov    (%r15),%eax
   1400024d3:	85 c0                	test   %eax,%eax
   1400024d5:	79 0d                	jns    1400024e4 <_pei386_runtime_relocator+0x2a4>
   1400024d7:	49 bb 00 00 00 00 ff 	movabs $0xffffffff00000000,%r11
   1400024de:	ff ff ff 
   1400024e1:	4c 09 d8             	or     %r11,%rax
   1400024e4:	4c 29 c0             	sub    %r8,%rax
   1400024e7:	4c 01 c8             	add    %r9,%rax
   1400024ea:	81 e1 c0 00 00 00    	and    $0xc0,%ecx
   1400024f0:	48 89 45 f8          	mov    %rax,-0x8(%rbp)
   1400024f4:	75 1a                	jne    140002510 <_pei386_runtime_relocator+0x2d0>
   1400024f6:	b9 ff ff ff ff       	mov    $0xffffffff,%ecx
   1400024fb:	48 39 c8             	cmp    %rcx,%rax
   1400024fe:	0f 8f ab 00 00 00    	jg     1400025af <_pei386_runtime_relocator+0x36f>
   140002504:	48 3d 00 00 00 80    	cmp    $0xffffffff80000000,%rax
   14000250a:	0f 8c 9f 00 00 00    	jl     1400025af <_pei386_runtime_relocator+0x36f>
   140002510:	4c 89 f9             	mov    %r15,%rcx
   140002513:	4d 89 e5             	mov    %r12,%r13
   140002516:	e8 b5 fb ff ff       	call   1400020d0 <mark_section_writable>
   14000251b:	41 b8 04 00 00 00    	mov    $0x4,%r8d
   140002521:	4c 89 e2             	mov    %r12,%rdx
   140002524:	4c 89 f9             	mov    %r15,%rcx
   140002527:	e8 f4 0a 00 00       	call   140003020 <memcpy>
   14000252c:	e9 46 fe ff ff       	jmp    140002377 <_pei386_runtime_relocator+0x137>
   140002531:	0f 1f 80 00 00 00 00 	nopl   0x0(%rax)
   140002538:	41 0f b6 07          	movzbl (%r15),%eax
   14000253c:	84 c0                	test   %al,%al
   14000253e:	79 06                	jns    140002546 <_pei386_runtime_relocator+0x306>
   140002540:	48 0d 00 ff ff ff    	or     $0xffffffffffffff00,%rax
   140002546:	4c 29 c0             	sub    %r8,%rax
   140002549:	4c 01 c8             	add    %r9,%rax
   14000254c:	81 e1 c0 00 00 00    	and    $0xc0,%ecx
   140002552:	48 89 45 f8          	mov    %rax,-0x8(%rbp)
   140002556:	75 0e                	jne    140002566 <_pei386_runtime_relocator+0x326>
   140002558:	48 3d ff 00 00 00    	cmp    $0xff,%rax
   14000255e:	7f 4f                	jg     1400025af <_pei386_runtime_relocator+0x36f>
   140002560:	48 83 f8 80          	cmp    $0xffffffffffffff80,%rax
   140002564:	7c 49                	jl     1400025af <_pei386_runtime_relocator+0x36f>
   140002566:	4c 89 f9             	mov    %r15,%rcx
   140002569:	4d 89 e5             	mov    %r12,%r13
   14000256c:	e8 5f fb ff ff       	call   1400020d0 <mark_section_writable>
   140002571:	41 b8 01 00 00 00    	mov    $0x1,%r8d
   140002577:	4c 89 e2             	mov    %r12,%rdx
   14000257a:	4c 89 f9             	mov    %r15,%rcx
   14000257d:	e8 9e 0a 00 00       	call   140003020 <memcpy>
   140002582:	e9 f0 fd ff ff       	jmp    140002377 <_pei386_runtime_relocator+0x137>
   140002587:	8b 4b 08             	mov    0x8(%rbx),%ecx
   14000258a:	85 c9                	test   %ecx,%ecx
   14000258c:	0f 85 56 fd ff ff    	jne    1400022e8 <_pei386_runtime_relocator+0xa8>
   140002592:	48 83 c3 0c          	add    $0xc,%rbx
   140002596:	e9 38 fd ff ff       	jmp    1400022d3 <_pei386_runtime_relocator+0x93>
   14000259b:	48 8d 0d 76 30 00 00 	lea    0x3076(%rip),%rcx        # 140005618 <.rdata+0xd8>
   1400025a2:	48 c7 45 f8 00 00 00 	movq   $0x0,-0x8(%rbp)
   1400025a9:	00 
   1400025aa:	e8 c1 fa ff ff       	call   140002070 <__report_error>
   1400025af:	48 89 44 24 20       	mov    %rax,0x20(%rsp)
   1400025b4:	4d 89 f8             	mov    %r15,%r8
   1400025b7:	48 8d 0d 8a 30 00 00 	lea    0x308a(%rip),%rcx        # 140005648 <.rdata+0x108>
   1400025be:	e8 ad fa ff ff       	call   140002070 <__report_error>
   1400025c3:	48 8d 0d 16 30 00 00 	lea    0x3016(%rip),%rcx        # 1400055e0 <.rdata+0xa0>
   1400025ca:	e8 a1 fa ff ff       	call   140002070 <__report_error>
   1400025cf:	90                   	nop

00000001400025d0 <__mingw_raise_matherr>:
   1400025d0:	48 83 ec 58          	sub    $0x58,%rsp
   1400025d4:	48 8b 05 e5 5a 40 00 	mov    0x405ae5(%rip),%rax        # 1404080c0 <stUserMathErr>
   1400025db:	48 85 c0             	test   %rax,%rax
   1400025de:	74 29                	je     140002609 <__mingw_raise_matherr+0x39>
   1400025e0:	f2 0f 10 84 24 80 00 	movsd  0x80(%rsp),%xmm0
   1400025e7:	00 00 
   1400025e9:	66 0f 14 d3          	unpcklpd %xmm3,%xmm2
   1400025ed:	89 4c 24 20          	mov    %ecx,0x20(%rsp)
   1400025f1:	48 8d 4c 24 20       	lea    0x20(%rsp),%rcx
   1400025f6:	48 89 54 24 28       	mov    %rdx,0x28(%rsp)
   1400025fb:	0f 11 54 24 30       	movups %xmm2,0x30(%rsp)
   140002600:	f2 0f 11 44 24 40    	movsd  %xmm0,0x40(%rsp)
   140002606:	ff d0                	call   *%rax
   140002608:	90                   	nop
   140002609:	48 83 c4 58          	add    $0x58,%rsp
   14000260d:	c3                   	ret
   14000260e:	66 90                	xchg   %ax,%ax

0000000140002610 <__mingw_setusermatherr>:
   140002610:	48 89 0d a9 5a 40 00 	mov    %rcx,0x405aa9(%rip)        # 1404080c0 <stUserMathErr>
   140002617:	e9 a4 09 00 00       	jmp    140002fc0 <__setusermatherr>
   14000261c:	90                   	nop
   14000261d:	90                   	nop
   14000261e:	90                   	nop
   14000261f:	90                   	nop

0000000140002620 <_gnu_exception_handler>:
   140002620:	53                   	push   %rbx
   140002621:	48 83 ec 20          	sub    $0x20,%rsp
   140002625:	48 8b 11             	mov    (%rcx),%rdx
   140002628:	8b 02                	mov    (%rdx),%eax
   14000262a:	48 89 cb             	mov    %rcx,%rbx
   14000262d:	89 c1                	mov    %eax,%ecx
   14000262f:	81 e1 ff ff ff 20    	and    $0x20ffffff,%ecx
   140002635:	81 f9 43 43 47 20    	cmp    $0x20474343,%ecx
   14000263b:	0f 84 8f 00 00 00    	je     1400026d0 <_gnu_exception_handler+0xb0>
   140002641:	3d 96 00 00 c0       	cmp    $0xc0000096,%eax
   140002646:	77 47                	ja     14000268f <_gnu_exception_handler+0x6f>
   140002648:	3d 8b 00 00 c0       	cmp    $0xc000008b,%eax
   14000264d:	76 61                	jbe    1400026b0 <_gnu_exception_handler+0x90>
   14000264f:	05 73 ff ff 3f       	add    $0x3fffff73,%eax
   140002654:	83 f8 09             	cmp    $0x9,%eax
   140002657:	77 6b                	ja     1400026c4 <_gnu_exception_handler+0xa4>
   140002659:	48 8d 15 40 30 00 00 	lea    0x3040(%rip),%rdx        # 1400056a0 <.rdata>
   140002660:	48 63 04 82          	movslq (%rdx,%rax,4),%rax
   140002664:	48 01 d0             	add    %rdx,%rax
   140002667:	ff e0                	jmp    *%rax
   140002669:	0f 1f 80 00 00 00 00 	nopl   0x0(%rax)
   140002670:	31 d2                	xor    %edx,%edx
   140002672:	b9 08 00 00 00       	mov    $0x8,%ecx
   140002677:	e8 b4 09 00 00       	call   140003030 <signal>
   14000267c:	48 83 f8 01          	cmp    $0x1,%rax
   140002680:	0f 84 3e 01 00 00    	je     1400027c4 <_gnu_exception_handler+0x1a4>
   140002686:	48 85 c0             	test   %rax,%rax
   140002689:	0f 85 01 01 00 00    	jne    140002790 <_gnu_exception_handler+0x170>
   14000268f:	48 8b 05 4a 5a 40 00 	mov    0x405a4a(%rip),%rax        # 1404080e0 <__mingw_oldexcpt_handler>
   140002696:	48 85 c0             	test   %rax,%rax
   140002699:	74 45                	je     1400026e0 <_gnu_exception_handler+0xc0>
   14000269b:	48 89 d9             	mov    %rbx,%rcx
   14000269e:	48 83 c4 20          	add    $0x20,%rsp
   1400026a2:	5b                   	pop    %rbx
   1400026a3:	48 ff e0             	rex.W jmp *%rax
   1400026a6:	66 2e 0f 1f 84 00 00 	cs nopw 0x0(%rax,%rax,1)
   1400026ad:	00 00 00 
   1400026b0:	3d 05 00 00 c0       	cmp    $0xc0000005,%eax
   1400026b5:	0f 84 a5 00 00 00    	je     140002760 <_gnu_exception_handler+0x140>
   1400026bb:	77 33                	ja     1400026f0 <_gnu_exception_handler+0xd0>
   1400026bd:	3d 02 00 00 80       	cmp    $0x80000002,%eax
   1400026c2:	75 cb                	jne    14000268f <_gnu_exception_handler+0x6f>
   1400026c4:	b8 ff ff ff ff       	mov    $0xffffffff,%eax
   1400026c9:	48 83 c4 20          	add    $0x20,%rsp
   1400026cd:	5b                   	pop    %rbx
   1400026ce:	c3                   	ret
   1400026cf:	90                   	nop
   1400026d0:	f6 42 04 01          	testb  $0x1,0x4(%rdx)
   1400026d4:	0f 85 67 ff ff ff    	jne    140002641 <_gnu_exception_handler+0x21>
   1400026da:	eb e8                	jmp    1400026c4 <_gnu_exception_handler+0xa4>
   1400026dc:	0f 1f 40 00          	nopl   0x0(%rax)
   1400026e0:	31 c0                	xor    %eax,%eax
   1400026e2:	48 83 c4 20          	add    $0x20,%rsp
   1400026e6:	5b                   	pop    %rbx
   1400026e7:	c3                   	ret
   1400026e8:	0f 1f 84 00 00 00 00 	nopl   0x0(%rax,%rax,1)
   1400026ef:	00 
   1400026f0:	3d 08 00 00 c0       	cmp    $0xc0000008,%eax
   1400026f5:	74 cd                	je     1400026c4 <_gnu_exception_handler+0xa4>
   1400026f7:	3d 1d 00 00 c0       	cmp    $0xc000001d,%eax
   1400026fc:	75 91                	jne    14000268f <_gnu_exception_handler+0x6f>
   1400026fe:	31 d2                	xor    %edx,%edx
   140002700:	b9 04 00 00 00       	mov    $0x4,%ecx
   140002705:	e8 26 09 00 00       	call   140003030 <signal>
   14000270a:	48 83 f8 01          	cmp    $0x1,%rax
   14000270e:	0f 84 9c 00 00 00    	je     1400027b0 <_gnu_exception_handler+0x190>
   140002714:	48 85 c0             	test   %rax,%rax
   140002717:	0f 84 72 ff ff ff    	je     14000268f <_gnu_exception_handler+0x6f>
   14000271d:	b9 04 00 00 00       	mov    $0x4,%ecx
   140002722:	ff d0                	call   *%rax
   140002724:	eb 9e                	jmp    1400026c4 <_gnu_exception_handler+0xa4>
   140002726:	66 2e 0f 1f 84 00 00 	cs nopw 0x0(%rax,%rax,1)
   14000272d:	00 00 00 
   140002730:	31 d2                	xor    %edx,%edx
   140002732:	b9 08 00 00 00       	mov    $0x8,%ecx
   140002737:	e8 f4 08 00 00       	call   140003030 <signal>
   14000273c:	48 83 f8 01          	cmp    $0x1,%rax
   140002740:	0f 85 40 ff ff ff    	jne    140002686 <_gnu_exception_handler+0x66>
   140002746:	ba 01 00 00 00       	mov    $0x1,%edx
   14000274b:	b9 08 00 00 00       	mov    $0x8,%ecx
   140002750:	e8 db 08 00 00       	call   140003030 <signal>
   140002755:	e9 6a ff ff ff       	jmp    1400026c4 <_gnu_exception_handler+0xa4>
   14000275a:	66 0f 1f 44 00 00    	nopw   0x0(%rax,%rax,1)
   140002760:	31 d2                	xor    %edx,%edx
   140002762:	b9 0b 00 00 00       	mov    $0xb,%ecx
   140002767:	e8 c4 08 00 00       	call   140003030 <signal>
   14000276c:	48 83 f8 01          	cmp    $0x1,%rax
   140002770:	74 2a                	je     14000279c <_gnu_exception_handler+0x17c>
   140002772:	48 85 c0             	test   %rax,%rax
   140002775:	0f 84 14 ff ff ff    	je     14000268f <_gnu_exception_handler+0x6f>
   14000277b:	b9 0b 00 00 00       	mov    $0xb,%ecx
   140002780:	ff d0                	call   *%rax
   140002782:	e9 3d ff ff ff       	jmp    1400026c4 <_gnu_exception_handler+0xa4>
   140002787:	66 0f 1f 84 00 00 00 	nopw   0x0(%rax,%rax,1)
   14000278e:	00 00 
   140002790:	b9 08 00 00 00       	mov    $0x8,%ecx
   140002795:	ff d0                	call   *%rax
   140002797:	e9 28 ff ff ff       	jmp    1400026c4 <_gnu_exception_handler+0xa4>
   14000279c:	ba 01 00 00 00       	mov    $0x1,%edx
   1400027a1:	b9 0b 00 00 00       	mov    $0xb,%ecx
   1400027a6:	e8 85 08 00 00       	call   140003030 <signal>
   1400027ab:	e9 14 ff ff ff       	jmp    1400026c4 <_gnu_exception_handler+0xa4>
   1400027b0:	ba 01 00 00 00       	mov    $0x1,%edx
   1400027b5:	b9 04 00 00 00       	mov    $0x4,%ecx
   1400027ba:	e8 71 08 00 00       	call   140003030 <signal>
   1400027bf:	e9 00 ff ff ff       	jmp    1400026c4 <_gnu_exception_handler+0xa4>
   1400027c4:	ba 01 00 00 00       	mov    $0x1,%edx
   1400027c9:	b9 08 00 00 00       	mov    $0x8,%ecx
   1400027ce:	e8 5d 08 00 00       	call   140003030 <signal>
   1400027d3:	e8 a8 02 00 00       	call   140002a80 <_fpreset>
   1400027d8:	e9 e7 fe ff ff       	jmp    1400026c4 <_gnu_exception_handler+0xa4>
   1400027dd:	90                   	nop
   1400027de:	90                   	nop
   1400027df:	90                   	nop

00000001400027e0 <__mingwthr_run_key_dtors.part.0>:
   1400027e0:	55                   	push   %rbp
   1400027e1:	57                   	push   %rdi
   1400027e2:	56                   	push   %rsi
   1400027e3:	53                   	push   %rbx
   1400027e4:	48 83 ec 28          	sub    $0x28,%rsp
   1400027e8:	48 8d 0d 31 59 40 00 	lea    0x405931(%rip),%rcx        # 140408120 <__mingwthr_cs>
   1400027ef:	ff 15 c3 6a 40 00    	call   *0x406ac3(%rip)        # 1404092b8 <__imp_EnterCriticalSection>
   1400027f5:	48 8b 1d 04 59 40 00 	mov    0x405904(%rip),%rbx        # 140408100 <key_dtor_list>
   1400027fc:	48 85 db             	test   %rbx,%rbx
   1400027ff:	74 33                	je     140002834 <__mingwthr_run_key_dtors.part.0+0x54>
   140002801:	48 8b 2d 00 6b 40 00 	mov    0x406b00(%rip),%rbp        # 140409308 <__imp_TlsGetValue>
   140002808:	48 8b 3d c1 6a 40 00 	mov    0x406ac1(%rip),%rdi        # 1404092d0 <__imp_GetLastError>
   14000280f:	90                   	nop
   140002810:	8b 0b                	mov    (%rbx),%ecx
   140002812:	ff d5                	call   *%rbp
   140002814:	48 89 c6             	mov    %rax,%rsi
   140002817:	ff d7                	call   *%rdi
   140002819:	48 85 f6             	test   %rsi,%rsi
   14000281c:	74 0d                	je     14000282b <__mingwthr_run_key_dtors.part.0+0x4b>
   14000281e:	85 c0                	test   %eax,%eax
   140002820:	75 09                	jne    14000282b <__mingwthr_run_key_dtors.part.0+0x4b>
   140002822:	48 8b 43 08          	mov    0x8(%rbx),%rax
   140002826:	48 89 f1             	mov    %rsi,%rcx
   140002829:	ff d0                	call   *%rax
   14000282b:	48 8b 5b 10          	mov    0x10(%rbx),%rbx
   14000282f:	48 85 db             	test   %rbx,%rbx
   140002832:	75 dc                	jne    140002810 <__mingwthr_run_key_dtors.part.0+0x30>
   140002834:	48 8d 0d e5 58 40 00 	lea    0x4058e5(%rip),%rcx        # 140408120 <__mingwthr_cs>
   14000283b:	48 83 c4 28          	add    $0x28,%rsp
   14000283f:	5b                   	pop    %rbx
   140002840:	5e                   	pop    %rsi
   140002841:	5f                   	pop    %rdi
   140002842:	5d                   	pop    %rbp
   140002843:	48 ff 25 9e 6a 40 00 	rex.W jmp *0x406a9e(%rip)        # 1404092e8 <__imp_LeaveCriticalSection>
   14000284a:	66 0f 1f 44 00 00    	nopw   0x0(%rax,%rax,1)

0000000140002850 <___w64_mingwthr_add_key_dtor>:
   140002850:	48 83 ec 38          	sub    $0x38,%rsp
   140002854:	8b 05 ae 58 40 00    	mov    0x4058ae(%rip),%eax        # 140408108 <__mingwthr_cs_init>
   14000285a:	41 89 c9             	mov    %ecx,%r9d
   14000285d:	85 c0                	test   %eax,%eax
   14000285f:	75 0f                	jne    140002870 <___w64_mingwthr_add_key_dtor+0x20>
   140002861:	31 c0                	xor    %eax,%eax
   140002863:	48 83 c4 38          	add    $0x38,%rsp
   140002867:	c3                   	ret
   140002868:	0f 1f 84 00 00 00 00 	nopl   0x0(%rax,%rax,1)
   14000286f:	00 
   140002870:	48 89 54 24 48       	mov    %rdx,0x48(%rsp)
   140002875:	b9 01 00 00 00       	mov    $0x1,%ecx
   14000287a:	ba 18 00 00 00       	mov    $0x18,%edx
   14000287f:	44 89 4c 24 40       	mov    %r9d,0x40(%rsp)
   140002884:	e8 6f 07 00 00       	call   140002ff8 <calloc>
   140002889:	48 85 c0             	test   %rax,%rax
   14000288c:	74 49                	je     1400028d7 <___w64_mingwthr_add_key_dtor+0x87>
   14000288e:	44 8b 4c 24 40       	mov    0x40(%rsp),%r9d
   140002893:	4c 8b 44 24 48       	mov    0x48(%rsp),%r8
   140002898:	48 89 44 24 28       	mov    %rax,0x28(%rsp)
   14000289d:	48 8d 0d 7c 58 40 00 	lea    0x40587c(%rip),%rcx        # 140408120 <__mingwthr_cs>
   1400028a4:	44 89 08             	mov    %r9d,(%rax)
   1400028a7:	4c 89 40 08          	mov    %r8,0x8(%rax)
   1400028ab:	ff 15 07 6a 40 00    	call   *0x406a07(%rip)        # 1404092b8 <__imp_EnterCriticalSection>
   1400028b1:	48 8b 15 48 58 40 00 	mov    0x405848(%rip),%rdx        # 140408100 <key_dtor_list>
   1400028b8:	48 8b 44 24 28       	mov    0x28(%rsp),%rax
   1400028bd:	48 8d 0d 5c 58 40 00 	lea    0x40585c(%rip),%rcx        # 140408120 <__mingwthr_cs>
   1400028c4:	48 89 50 10          	mov    %rdx,0x10(%rax)
   1400028c8:	48 89 05 31 58 40 00 	mov    %rax,0x405831(%rip)        # 140408100 <key_dtor_list>
   1400028cf:	ff 15 13 6a 40 00    	call   *0x406a13(%rip)        # 1404092e8 <__imp_LeaveCriticalSection>
   1400028d5:	eb 8a                	jmp    140002861 <___w64_mingwthr_add_key_dtor+0x11>
   1400028d7:	b8 ff ff ff ff       	mov    $0xffffffff,%eax
   1400028dc:	eb 85                	jmp    140002863 <___w64_mingwthr_add_key_dtor+0x13>
   1400028de:	66 90                	xchg   %ax,%ax

00000001400028e0 <___w64_mingwthr_remove_key_dtor>:
   1400028e0:	48 83 ec 28          	sub    $0x28,%rsp
   1400028e4:	8b 05 1e 58 40 00    	mov    0x40581e(%rip),%eax        # 140408108 <__mingwthr_cs_init>
   1400028ea:	85 c0                	test   %eax,%eax
   1400028ec:	75 0a                	jne    1400028f8 <___w64_mingwthr_remove_key_dtor+0x18>
   1400028ee:	31 c0                	xor    %eax,%eax
   1400028f0:	48 83 c4 28          	add    $0x28,%rsp
   1400028f4:	c3                   	ret
   1400028f5:	0f 1f 00             	nopl   (%rax)
   1400028f8:	89 4c 24 30          	mov    %ecx,0x30(%rsp)
   1400028fc:	48 8d 0d 1d 58 40 00 	lea    0x40581d(%rip),%rcx        # 140408120 <__mingwthr_cs>
   140002903:	ff 15 af 69 40 00    	call   *0x4069af(%rip)        # 1404092b8 <__imp_EnterCriticalSection>
   140002909:	48 8b 0d f0 57 40 00 	mov    0x4057f0(%rip),%rcx        # 140408100 <key_dtor_list>
   140002910:	48 85 c9             	test   %rcx,%rcx
   140002913:	74 2e                	je     140002943 <___w64_mingwthr_remove_key_dtor+0x63>
   140002915:	8b 54 24 30          	mov    0x30(%rsp),%edx
   140002919:	45 31 c0             	xor    %r8d,%r8d
   14000291c:	eb 0d                	jmp    14000292b <___w64_mingwthr_remove_key_dtor+0x4b>
   14000291e:	66 90                	xchg   %ax,%ax
   140002920:	49 89 c8             	mov    %rcx,%r8
   140002923:	48 85 c0             	test   %rax,%rax
   140002926:	74 1b                	je     140002943 <___w64_mingwthr_remove_key_dtor+0x63>
   140002928:	48 89 c1             	mov    %rax,%rcx
   14000292b:	8b 01                	mov    (%rcx),%eax
   14000292d:	39 d0                	cmp    %edx,%eax
   14000292f:	48 8b 41 10          	mov    0x10(%rcx),%rax
   140002933:	75 eb                	jne    140002920 <___w64_mingwthr_remove_key_dtor+0x40>
   140002935:	4d 85 c0             	test   %r8,%r8
   140002938:	74 26                	je     140002960 <___w64_mingwthr_remove_key_dtor+0x80>
   14000293a:	49 89 40 10          	mov    %rax,0x10(%r8)
   14000293e:	e8 cd 06 00 00       	call   140003010 <free>
   140002943:	48 8d 0d d6 57 40 00 	lea    0x4057d6(%rip),%rcx        # 140408120 <__mingwthr_cs>
   14000294a:	ff 15 98 69 40 00    	call   *0x406998(%rip)        # 1404092e8 <__imp_LeaveCriticalSection>
   140002950:	31 c0                	xor    %eax,%eax
   140002952:	48 83 c4 28          	add    $0x28,%rsp
   140002956:	c3                   	ret
   140002957:	66 0f 1f 84 00 00 00 	nopw   0x0(%rax,%rax,1)
   14000295e:	00 00 
   140002960:	48 89 05 99 57 40 00 	mov    %rax,0x405799(%rip)        # 140408100 <key_dtor_list>
   140002967:	eb d5                	jmp    14000293e <___w64_mingwthr_remove_key_dtor+0x5e>
   140002969:	0f 1f 80 00 00 00 00 	nopl   0x0(%rax)

0000000140002970 <__mingw_TLScallback>:
   140002970:	48 83 ec 38          	sub    $0x38,%rsp
   140002974:	83 fa 02             	cmp    $0x2,%edx
   140002977:	0f 84 bb 00 00 00    	je     140002a38 <__mingw_TLScallback+0xc8>
   14000297d:	77 29                	ja     1400029a8 <__mingw_TLScallback+0x38>
   14000297f:	85 d2                	test   %edx,%edx
   140002981:	74 3d                	je     1400029c0 <__mingw_TLScallback+0x50>
   140002983:	8b 05 7f 57 40 00    	mov    0x40577f(%rip),%eax        # 140408108 <__mingwthr_cs_init>
   140002989:	85 c0                	test   %eax,%eax
   14000298b:	0f 84 cf 00 00 00    	je     140002a60 <__mingw_TLScallback+0xf0>
   140002991:	c7 05 6d 57 40 00 01 	movl   $0x1,0x40576d(%rip)        # 140408108 <__mingwthr_cs_init>
   140002998:	00 00 00 
   14000299b:	b8 01 00 00 00       	mov    $0x1,%eax
   1400029a0:	48 83 c4 38          	add    $0x38,%rsp
   1400029a4:	c3                   	ret
   1400029a5:	0f 1f 00             	nopl   (%rax)
   1400029a8:	83 fa 03             	cmp    $0x3,%edx
   1400029ab:	75 ee                	jne    14000299b <__mingw_TLScallback+0x2b>
   1400029ad:	8b 05 55 57 40 00    	mov    0x405755(%rip),%eax        # 140408108 <__mingwthr_cs_init>
   1400029b3:	85 c0                	test   %eax,%eax
   1400029b5:	74 e4                	je     14000299b <__mingw_TLScallback+0x2b>
   1400029b7:	e8 24 fe ff ff       	call   1400027e0 <__mingwthr_run_key_dtors.part.0>
   1400029bc:	eb dd                	jmp    14000299b <__mingw_TLScallback+0x2b>
   1400029be:	66 90                	xchg   %ax,%ax
   1400029c0:	8b 05 42 57 40 00    	mov    0x405742(%rip),%eax        # 140408108 <__mingwthr_cs_init>
   1400029c6:	85 c0                	test   %eax,%eax
   1400029c8:	0f 85 82 00 00 00    	jne    140002a50 <__mingw_TLScallback+0xe0>
   1400029ce:	8b 05 34 57 40 00    	mov    0x405734(%rip),%eax        # 140408108 <__mingwthr_cs_init>
   1400029d4:	83 f8 01             	cmp    $0x1,%eax
   1400029d7:	75 c2                	jne    14000299b <__mingw_TLScallback+0x2b>
   1400029d9:	48 8b 05 20 57 40 00 	mov    0x405720(%rip),%rax        # 140408100 <key_dtor_list>
   1400029e0:	48 85 c0             	test   %rax,%rax
   1400029e3:	74 26                	je     140002a0b <__mingw_TLScallback+0x9b>
   1400029e5:	66 66 2e 0f 1f 84 00 	data16 cs nopw 0x0(%rax,%rax,1)
   1400029ec:	00 00 00 00 
   1400029f0:	48 89 c1             	mov    %rax,%rcx
   1400029f3:	48 8b 40 10          	mov    0x10(%rax),%rax
   1400029f7:	48 89 44 24 28       	mov    %rax,0x28(%rsp)
   1400029fc:	e8 0f 06 00 00       	call   140003010 <free>
   140002a01:	48 8b 44 24 28       	mov    0x28(%rsp),%rax
   140002a06:	48 85 c0             	test   %rax,%rax
   140002a09:	75 e5                	jne    1400029f0 <__mingw_TLScallback+0x80>
   140002a0b:	48 8d 0d 0e 57 40 00 	lea    0x40570e(%rip),%rcx        # 140408120 <__mingwthr_cs>
   140002a12:	48 c7 05 e3 56 40 00 	movq   $0x0,0x4056e3(%rip)        # 140408100 <key_dtor_list>
   140002a19:	00 00 00 00 
   140002a1d:	c7 05 e1 56 40 00 00 	movl   $0x0,0x4056e1(%rip)        # 140408108 <__mingwthr_cs_init>
   140002a24:	00 00 00 
   140002a27:	ff 15 83 68 40 00    	call   *0x406883(%rip)        # 1404092b0 <__imp_DeleteCriticalSection>
   140002a2d:	e9 69 ff ff ff       	jmp    14000299b <__mingw_TLScallback+0x2b>
   140002a32:	66 0f 1f 44 00 00    	nopw   0x0(%rax,%rax,1)
   140002a38:	e8 43 00 00 00       	call   140002a80 <_fpreset>
   140002a3d:	b8 01 00 00 00       	mov    $0x1,%eax
   140002a42:	48 83 c4 38          	add    $0x38,%rsp
   140002a46:	c3                   	ret
   140002a47:	66 0f 1f 84 00 00 00 	nopw   0x0(%rax,%rax,1)
   140002a4e:	00 00 
   140002a50:	e8 8b fd ff ff       	call   1400027e0 <__mingwthr_run_key_dtors.part.0>
   140002a55:	e9 74 ff ff ff       	jmp    1400029ce <__mingw_TLScallback+0x5e>
   140002a5a:	66 0f 1f 44 00 00    	nopw   0x0(%rax,%rax,1)
   140002a60:	48 8d 0d b9 56 40 00 	lea    0x4056b9(%rip),%rcx        # 140408120 <__mingwthr_cs>
   140002a67:	ff 15 73 68 40 00    	call   *0x406873(%rip)        # 1404092e0 <__imp_InitializeCriticalSection>
   140002a6d:	e9 1f ff ff ff       	jmp    140002991 <__mingw_TLScallback+0x21>
   140002a72:	90                   	nop
   140002a73:	90                   	nop
   140002a74:	90                   	nop
   140002a75:	90                   	nop
   140002a76:	90                   	nop
   140002a77:	90                   	nop
   140002a78:	90                   	nop
   140002a79:	90                   	nop
   140002a7a:	90                   	nop
   140002a7b:	90                   	nop
   140002a7c:	90                   	nop
   140002a7d:	90                   	nop
   140002a7e:	90                   	nop
   140002a7f:	90                   	nop

0000000140002a80 <_fpreset>:
   140002a80:	db e3                	fninit
   140002a82:	c3                   	ret
   140002a83:	90                   	nop
   140002a84:	90                   	nop
   140002a85:	90                   	nop
   140002a86:	90                   	nop
   140002a87:	90                   	nop
   140002a88:	90                   	nop
   140002a89:	90                   	nop
   140002a8a:	90                   	nop
   140002a8b:	90                   	nop
   140002a8c:	90                   	nop
   140002a8d:	90                   	nop
   140002a8e:	90                   	nop
   140002a8f:	90                   	nop

0000000140002a90 <_ValidateImageBase>:
   140002a90:	31 c0                	xor    %eax,%eax
   140002a92:	66 81 39 4d 5a       	cmpw   $0x5a4d,(%rcx)
   140002a97:	75 0f                	jne    140002aa8 <_ValidateImageBase+0x18>
   140002a99:	48 63 51 3c          	movslq 0x3c(%rcx),%rdx
   140002a9d:	48 01 d1             	add    %rdx,%rcx
   140002aa0:	81 39 50 45 00 00    	cmpl   $0x4550,(%rcx)
   140002aa6:	74 08                	je     140002ab0 <_ValidateImageBase+0x20>
   140002aa8:	c3                   	ret
   140002aa9:	0f 1f 80 00 00 00 00 	nopl   0x0(%rax)
   140002ab0:	31 c0                	xor    %eax,%eax
   140002ab2:	66 81 79 18 0b 02    	cmpw   $0x20b,0x18(%rcx)
   140002ab8:	0f 94 c0             	sete   %al
   140002abb:	c3                   	ret
   140002abc:	0f 1f 40 00          	nopl   0x0(%rax)

0000000140002ac0 <_FindPESection>:
   140002ac0:	48 63 41 3c          	movslq 0x3c(%rcx),%rax
   140002ac4:	48 01 c8             	add    %rcx,%rax
   140002ac7:	0f b7 48 06          	movzwl 0x6(%rax),%ecx
   140002acb:	66 85 c9             	test   %cx,%cx
   140002ace:	74 3d                	je     140002b0d <_FindPESection+0x4d>
   140002ad0:	44 0f b7 40 14       	movzwl 0x14(%rax),%r8d
   140002ad5:	83 e9 01             	sub    $0x1,%ecx
   140002ad8:	48 8d 0c 89          	lea    (%rcx,%rcx,4),%rcx
   140002adc:	4a 8d 44 00 18       	lea    0x18(%rax,%r8,1),%rax
   140002ae1:	4c 8d 4c c8 28       	lea    0x28(%rax,%rcx,8),%r9
   140002ae6:	66 2e 0f 1f 84 00 00 	cs nopw 0x0(%rax,%rax,1)
   140002aed:	00 00 00 
   140002af0:	44 8b 40 0c          	mov    0xc(%rax),%r8d
   140002af4:	4c 89 c1             	mov    %r8,%rcx
   140002af7:	4c 39 c2             	cmp    %r8,%rdx
   140002afa:	72 08                	jb     140002b04 <_FindPESection+0x44>
   140002afc:	03 48 08             	add    0x8(%rax),%ecx
   140002aff:	48 39 ca             	cmp    %rcx,%rdx
   140002b02:	72 0b                	jb     140002b0f <_FindPESection+0x4f>
   140002b04:	48 83 c0 28          	add    $0x28,%rax
   140002b08:	4c 39 c8             	cmp    %r9,%rax
   140002b0b:	75 e3                	jne    140002af0 <_FindPESection+0x30>
   140002b0d:	31 c0                	xor    %eax,%eax
   140002b0f:	c3                   	ret

0000000140002b10 <_FindPESectionByName>:
   140002b10:	55                   	push   %rbp
   140002b11:	57                   	push   %rdi
   140002b12:	56                   	push   %rsi
   140002b13:	53                   	push   %rbx
   140002b14:	48 83 ec 28          	sub    $0x28,%rsp
   140002b18:	48 89 cf             	mov    %rcx,%rdi
   140002b1b:	e8 18 05 00 00       	call   140003038 <strlen>
   140002b20:	48 83 f8 08          	cmp    $0x8,%rax
   140002b24:	77 0e                	ja     140002b34 <_FindPESectionByName+0x24>
   140002b26:	48 8b 05 f3 2b 00 00 	mov    0x2bf3(%rip),%rax        # 140005720 <.refptr.__ImageBase>
   140002b2d:	66 81 38 4d 5a       	cmpw   $0x5a4d,(%rax)
   140002b32:	74 14                	je     140002b48 <_FindPESectionByName+0x38>
   140002b34:	31 db                	xor    %ebx,%ebx
   140002b36:	48 89 d8             	mov    %rbx,%rax
   140002b39:	48 83 c4 28          	add    $0x28,%rsp
   140002b3d:	5b                   	pop    %rbx
   140002b3e:	5e                   	pop    %rsi
   140002b3f:	5f                   	pop    %rdi
   140002b40:	5d                   	pop    %rbp
   140002b41:	c3                   	ret
   140002b42:	66 0f 1f 44 00 00    	nopw   0x0(%rax,%rax,1)
   140002b48:	48 63 68 3c          	movslq 0x3c(%rax),%rbp
   140002b4c:	48 01 c5             	add    %rax,%rbp
   140002b4f:	81 7d 00 50 45 00 00 	cmpl   $0x4550,0x0(%rbp)
   140002b56:	75 dc                	jne    140002b34 <_FindPESectionByName+0x24>
   140002b58:	66 81 7d 18 0b 02    	cmpw   $0x20b,0x18(%rbp)
   140002b5e:	75 d4                	jne    140002b34 <_FindPESectionByName+0x24>
   140002b60:	66 83 7d 06 00       	cmpw   $0x0,0x6(%rbp)
   140002b65:	74 cd                	je     140002b34 <_FindPESectionByName+0x24>
   140002b67:	0f b7 45 14          	movzwl 0x14(%rbp),%eax
   140002b6b:	31 f6                	xor    %esi,%esi
   140002b6d:	48 8d 5c 05 18       	lea    0x18(%rbp,%rax,1),%rbx
   140002b72:	0f 1f 00             	nopl   (%rax)
   140002b75:	66 66 2e 0f 1f 84 00 	data16 cs nopw 0x0(%rax,%rax,1)
   140002b7c:	00 00 00 00 
   140002b80:	41 b8 08 00 00 00    	mov    $0x8,%r8d
   140002b86:	48 89 fa             	mov    %rdi,%rdx
   140002b89:	48 89 d9             	mov    %rbx,%rcx
   140002b8c:	e8 af 04 00 00       	call   140003040 <strncmp>
   140002b91:	85 c0                	test   %eax,%eax
   140002b93:	74 a1                	je     140002b36 <_FindPESectionByName+0x26>
   140002b95:	0f b7 45 06          	movzwl 0x6(%rbp),%eax
   140002b99:	83 c6 01             	add    $0x1,%esi
   140002b9c:	48 83 c3 28          	add    $0x28,%rbx
   140002ba0:	39 c6                	cmp    %eax,%esi
   140002ba2:	72 dc                	jb     140002b80 <_FindPESectionByName+0x70>
   140002ba4:	eb 8e                	jmp    140002b34 <_FindPESectionByName+0x24>
   140002ba6:	66 2e 0f 1f 84 00 00 	cs nopw 0x0(%rax,%rax,1)
   140002bad:	00 00 00 

0000000140002bb0 <__mingw_GetSectionForAddress>:
   140002bb0:	48 8b 15 69 2b 00 00 	mov    0x2b69(%rip),%rdx        # 140005720 <.refptr.__ImageBase>
   140002bb7:	31 c0                	xor    %eax,%eax
   140002bb9:	66 81 3a 4d 5a       	cmpw   $0x5a4d,(%rdx)
   140002bbe:	75 10                	jne    140002bd0 <__mingw_GetSectionForAddress+0x20>
   140002bc0:	4c 63 42 3c          	movslq 0x3c(%rdx),%r8
   140002bc4:	49 01 d0             	add    %rdx,%r8
   140002bc7:	41 81 38 50 45 00 00 	cmpl   $0x4550,(%r8)
   140002bce:	74 08                	je     140002bd8 <__mingw_GetSectionForAddress+0x28>
   140002bd0:	c3                   	ret
   140002bd1:	0f 1f 80 00 00 00 00 	nopl   0x0(%rax)
   140002bd8:	66 41 81 78 18 0b 02 	cmpw   $0x20b,0x18(%r8)
   140002bdf:	75 ef                	jne    140002bd0 <__mingw_GetSectionForAddress+0x20>
   140002be1:	45 0f b7 48 06       	movzwl 0x6(%r8),%r9d
   140002be6:	66 45 85 c9          	test   %r9w,%r9w
   140002bea:	74 e4                	je     140002bd0 <__mingw_GetSectionForAddress+0x20>
   140002bec:	41 0f b7 40 14       	movzwl 0x14(%r8),%eax
   140002bf1:	48 29 d1             	sub    %rdx,%rcx
   140002bf4:	41 8d 51 ff          	lea    -0x1(%r9),%edx
   140002bf8:	48 8d 14 92          	lea    (%rdx,%rdx,4),%rdx
   140002bfc:	49 8d 44 00 18       	lea    0x18(%r8,%rax,1),%rax
   140002c01:	4c 8d 4c d0 28       	lea    0x28(%rax,%rdx,8),%r9
   140002c06:	66 2e 0f 1f 84 00 00 	cs nopw 0x0(%rax,%rax,1)
   140002c0d:	00 00 00 
   140002c10:	44 8b 40 0c          	mov    0xc(%rax),%r8d
   140002c14:	4c 89 c2             	mov    %r8,%rdx
   140002c17:	4c 39 c1             	cmp    %r8,%rcx
   140002c1a:	72 08                	jb     140002c24 <__mingw_GetSectionForAddress+0x74>
   140002c1c:	03 50 08             	add    0x8(%rax),%edx
   140002c1f:	48 39 d1             	cmp    %rdx,%rcx
   140002c22:	72 ac                	jb     140002bd0 <__mingw_GetSectionForAddress+0x20>
   140002c24:	48 83 c0 28          	add    $0x28,%rax
   140002c28:	4c 39 c8             	cmp    %r9,%rax
   140002c2b:	75 e3                	jne    140002c10 <__mingw_GetSectionForAddress+0x60>
   140002c2d:	31 c0                	xor    %eax,%eax
   140002c2f:	c3                   	ret

0000000140002c30 <__mingw_GetSectionCount>:
   140002c30:	48 8b 05 e9 2a 00 00 	mov    0x2ae9(%rip),%rax        # 140005720 <.refptr.__ImageBase>
   140002c37:	31 c9                	xor    %ecx,%ecx
   140002c39:	66 81 38 4d 5a       	cmpw   $0x5a4d,(%rax)
   140002c3e:	75 0f                	jne    140002c4f <__mingw_GetSectionCount+0x1f>
   140002c40:	48 63 50 3c          	movslq 0x3c(%rax),%rdx
   140002c44:	48 01 d0             	add    %rdx,%rax
   140002c47:	81 38 50 45 00 00    	cmpl   $0x4550,(%rax)
   140002c4d:	74 09                	je     140002c58 <__mingw_GetSectionCount+0x28>
   140002c4f:	89 c8                	mov    %ecx,%eax
   140002c51:	c3                   	ret
   140002c52:	66 0f 1f 44 00 00    	nopw   0x0(%rax,%rax,1)
   140002c58:	66 81 78 18 0b 02    	cmpw   $0x20b,0x18(%rax)
   140002c5e:	75 ef                	jne    140002c4f <__mingw_GetSectionCount+0x1f>
   140002c60:	0f b7 48 06          	movzwl 0x6(%rax),%ecx
   140002c64:	89 c8                	mov    %ecx,%eax
   140002c66:	c3                   	ret
   140002c67:	66 0f 1f 84 00 00 00 	nopw   0x0(%rax,%rax,1)
   140002c6e:	00 00 

0000000140002c70 <_FindPESectionExec>:
   140002c70:	4c 8b 05 a9 2a 00 00 	mov    0x2aa9(%rip),%r8        # 140005720 <.refptr.__ImageBase>
   140002c77:	31 c0                	xor    %eax,%eax
   140002c79:	66 41 81 38 4d 5a    	cmpw   $0x5a4d,(%r8)
   140002c7f:	75 0f                	jne    140002c90 <_FindPESectionExec+0x20>
   140002c81:	49 63 50 3c          	movslq 0x3c(%r8),%rdx
   140002c85:	4c 01 c2             	add    %r8,%rdx
   140002c88:	81 3a 50 45 00 00    	cmpl   $0x4550,(%rdx)
   140002c8e:	74 08                	je     140002c98 <_FindPESectionExec+0x28>
   140002c90:	c3                   	ret
   140002c91:	0f 1f 80 00 00 00 00 	nopl   0x0(%rax)
   140002c98:	66 81 7a 18 0b 02    	cmpw   $0x20b,0x18(%rdx)
   140002c9e:	75 f0                	jne    140002c90 <_FindPESectionExec+0x20>
   140002ca0:	44 0f b7 42 06       	movzwl 0x6(%rdx),%r8d
   140002ca5:	66 45 85 c0          	test   %r8w,%r8w
   140002ca9:	74 e5                	je     140002c90 <_FindPESectionExec+0x20>
   140002cab:	0f b7 42 14          	movzwl 0x14(%rdx),%eax
   140002caf:	48 8d 44 02 18       	lea    0x18(%rdx,%rax,1),%rax
   140002cb4:	41 8d 50 ff          	lea    -0x1(%r8),%edx
   140002cb8:	48 8d 14 92          	lea    (%rdx,%rdx,4),%rdx
   140002cbc:	48 8d 54 d0 28       	lea    0x28(%rax,%rdx,8),%rdx
   140002cc1:	0f 1f 40 00          	nopl   0x0(%rax)
   140002cc5:	66 66 2e 0f 1f 84 00 	data16 cs nopw 0x0(%rax,%rax,1)
   140002ccc:	00 00 00 00 
   140002cd0:	f6 40 27 20          	testb  $0x20,0x27(%rax)
   140002cd4:	74 09                	je     140002cdf <_FindPESectionExec+0x6f>
   140002cd6:	48 85 c9             	test   %rcx,%rcx
   140002cd9:	74 b5                	je     140002c90 <_FindPESectionExec+0x20>
   140002cdb:	48 83 e9 01          	sub    $0x1,%rcx
   140002cdf:	48 83 c0 28          	add    $0x28,%rax
   140002ce3:	48 39 c2             	cmp    %rax,%rdx
   140002ce6:	75 e8                	jne    140002cd0 <_FindPESectionExec+0x60>
   140002ce8:	31 c0                	xor    %eax,%eax
   140002cea:	c3                   	ret
   140002ceb:	0f 1f 44 00 00       	nopl   0x0(%rax,%rax,1)

0000000140002cf0 <_GetPEImageBase>:
   140002cf0:	48 8b 05 29 2a 00 00 	mov    0x2a29(%rip),%rax        # 140005720 <.refptr.__ImageBase>
   140002cf7:	31 d2                	xor    %edx,%edx
   140002cf9:	66 81 38 4d 5a       	cmpw   $0x5a4d,(%rax)
   140002cfe:	75 0f                	jne    140002d0f <_GetPEImageBase+0x1f>
   140002d00:	48 63 48 3c          	movslq 0x3c(%rax),%rcx
   140002d04:	48 01 c1             	add    %rax,%rcx
   140002d07:	81 39 50 45 00 00    	cmpl   $0x4550,(%rcx)
   140002d0d:	74 09                	je     140002d18 <_GetPEImageBase+0x28>
   140002d0f:	48 89 d0             	mov    %rdx,%rax
   140002d12:	c3                   	ret
   140002d13:	0f 1f 44 00 00       	nopl   0x0(%rax,%rax,1)
   140002d18:	66 81 79 18 0b 02    	cmpw   $0x20b,0x18(%rcx)
   140002d1e:	48 0f 44 d0          	cmove  %rax,%rdx
   140002d22:	48 89 d0             	mov    %rdx,%rax
   140002d25:	c3                   	ret
   140002d26:	66 2e 0f 1f 84 00 00 	cs nopw 0x0(%rax,%rax,1)
   140002d2d:	00 00 00 

0000000140002d30 <_IsNonwritableInCurrentImage>:
   140002d30:	48 8b 15 e9 29 00 00 	mov    0x29e9(%rip),%rdx        # 140005720 <.refptr.__ImageBase>
   140002d37:	31 c0                	xor    %eax,%eax
   140002d39:	66 81 3a 4d 5a       	cmpw   $0x5a4d,(%rdx)
   140002d3e:	75 10                	jne    140002d50 <_IsNonwritableInCurrentImage+0x20>
   140002d40:	4c 63 42 3c          	movslq 0x3c(%rdx),%r8
   140002d44:	49 01 d0             	add    %rdx,%r8
   140002d47:	41 81 38 50 45 00 00 	cmpl   $0x4550,(%r8)
   140002d4e:	74 08                	je     140002d58 <_IsNonwritableInCurrentImage+0x28>
   140002d50:	c3                   	ret
   140002d51:	0f 1f 80 00 00 00 00 	nopl   0x0(%rax)
   140002d58:	66 41 81 78 18 0b 02 	cmpw   $0x20b,0x18(%r8)
   140002d5f:	75 ef                	jne    140002d50 <_IsNonwritableInCurrentImage+0x20>
   140002d61:	45 0f b7 48 06       	movzwl 0x6(%r8),%r9d
   140002d66:	66 45 85 c9          	test   %r9w,%r9w
   140002d6a:	74 e4                	je     140002d50 <_IsNonwritableInCurrentImage+0x20>
   140002d6c:	41 0f b7 40 14       	movzwl 0x14(%r8),%eax
   140002d71:	48 29 d1             	sub    %rdx,%rcx
   140002d74:	41 8d 51 ff          	lea    -0x1(%r9),%edx
   140002d78:	48 8d 14 92          	lea    (%rdx,%rdx,4),%rdx
   140002d7c:	49 8d 44 00 18       	lea    0x18(%r8,%rax,1),%rax
   140002d81:	4c 8d 4c d0 28       	lea    0x28(%rax,%rdx,8),%r9
   140002d86:	66 2e 0f 1f 84 00 00 	cs nopw 0x0(%rax,%rax,1)
   140002d8d:	00 00 00 
   140002d90:	44 8b 40 0c          	mov    0xc(%rax),%r8d
   140002d94:	4c 89 c2             	mov    %r8,%rdx
   140002d97:	4c 39 c1             	cmp    %r8,%rcx
   140002d9a:	72 08                	jb     140002da4 <_IsNonwritableInCurrentImage+0x74>
   140002d9c:	03 50 08             	add    0x8(%rax),%edx
   140002d9f:	48 39 d1             	cmp    %rdx,%rcx
   140002da2:	72 0c                	jb     140002db0 <_IsNonwritableInCurrentImage+0x80>
   140002da4:	48 83 c0 28          	add    $0x28,%rax
   140002da8:	49 39 c1             	cmp    %rax,%r9
   140002dab:	75 e3                	jne    140002d90 <_IsNonwritableInCurrentImage+0x60>
   140002dad:	31 c0                	xor    %eax,%eax
   140002daf:	c3                   	ret
   140002db0:	8b 40 24             	mov    0x24(%rax),%eax
   140002db3:	f7 d0                	not    %eax
   140002db5:	c1 e8 1f             	shr    $0x1f,%eax
   140002db8:	c3                   	ret
   140002db9:	0f 1f 80 00 00 00 00 	nopl   0x0(%rax)

0000000140002dc0 <__mingw_enum_import_library_names>:
   140002dc0:	4c 8b 1d 59 29 00 00 	mov    0x2959(%rip),%r11        # 140005720 <.refptr.__ImageBase>
   140002dc7:	45 31 c0             	xor    %r8d,%r8d
   140002dca:	66 41 81 3b 4d 5a    	cmpw   $0x5a4d,(%r11)
   140002dd0:	75 0f                	jne    140002de1 <__mingw_enum_import_library_names+0x21>
   140002dd2:	49 63 53 3c          	movslq 0x3c(%r11),%rdx
   140002dd6:	4c 01 da             	add    %r11,%rdx
   140002dd9:	81 3a 50 45 00 00    	cmpl   $0x4550,(%rdx)
   140002ddf:	74 07                	je     140002de8 <__mingw_enum_import_library_names+0x28>
   140002de1:	4c 89 c0             	mov    %r8,%rax
   140002de4:	c3                   	ret
   140002de5:	0f 1f 00             	nopl   (%rax)
   140002de8:	66 81 7a 18 0b 02    	cmpw   $0x20b,0x18(%rdx)
   140002dee:	75 f1                	jne    140002de1 <__mingw_enum_import_library_names+0x21>
   140002df0:	8b 82 90 00 00 00    	mov    0x90(%rdx),%eax
   140002df6:	85 c0                	test   %eax,%eax
   140002df8:	74 e7                	je     140002de1 <__mingw_enum_import_library_names+0x21>
   140002dfa:	44 0f b7 4a 06       	movzwl 0x6(%rdx),%r9d
   140002dff:	66 45 85 c9          	test   %r9w,%r9w
   140002e03:	74 dc                	je     140002de1 <__mingw_enum_import_library_names+0x21>
   140002e05:	44 0f b7 42 14       	movzwl 0x14(%rdx),%r8d
   140002e0a:	4a 8d 54 02 18       	lea    0x18(%rdx,%r8,1),%rdx
   140002e0f:	45 8d 41 ff          	lea    -0x1(%r9),%r8d
   140002e13:	4f 8d 04 80          	lea    (%r8,%r8,4),%r8
   140002e17:	4e 8d 54 c2 28       	lea    0x28(%rdx,%r8,8),%r10
   140002e1c:	0f 1f 40 00          	nopl   0x0(%rax)
   140002e20:	44 8b 4a 0c          	mov    0xc(%rdx),%r9d
   140002e24:	4d 89 c8             	mov    %r9,%r8
   140002e27:	4c 39 c8             	cmp    %r9,%rax
   140002e2a:	72 09                	jb     140002e35 <__mingw_enum_import_library_names+0x75>
   140002e2c:	44 03 42 08          	add    0x8(%rdx),%r8d
   140002e30:	4c 39 c0             	cmp    %r8,%rax
   140002e33:	72 13                	jb     140002e48 <__mingw_enum_import_library_names+0x88>
   140002e35:	48 83 c2 28          	add    $0x28,%rdx
   140002e39:	49 39 d2             	cmp    %rdx,%r10
   140002e3c:	75 e2                	jne    140002e20 <__mingw_enum_import_library_names+0x60>
   140002e3e:	45 31 c0             	xor    %r8d,%r8d
   140002e41:	4c 89 c0             	mov    %r8,%rax
   140002e44:	c3                   	ret
   140002e45:	0f 1f 00             	nopl   (%rax)
   140002e48:	4c 01 d8             	add    %r11,%rax
   140002e4b:	eb 0a                	jmp    140002e57 <__mingw_enum_import_library_names+0x97>
   140002e4d:	0f 1f 00             	nopl   (%rax)
   140002e50:	83 e9 01             	sub    $0x1,%ecx
   140002e53:	48 83 c0 14          	add    $0x14,%rax
   140002e57:	44 8b 40 04          	mov    0x4(%rax),%r8d
   140002e5b:	45 85 c0             	test   %r8d,%r8d
   140002e5e:	75 07                	jne    140002e67 <__mingw_enum_import_library_names+0xa7>
   140002e60:	8b 50 0c             	mov    0xc(%rax),%edx
   140002e63:	85 d2                	test   %edx,%edx
   140002e65:	74 d7                	je     140002e3e <__mingw_enum_import_library_names+0x7e>
   140002e67:	85 c9                	test   %ecx,%ecx
   140002e69:	7f e5                	jg     140002e50 <__mingw_enum_import_library_names+0x90>
   140002e6b:	44 8b 40 0c          	mov    0xc(%rax),%r8d
   140002e6f:	4d 01 d8             	add    %r11,%r8
   140002e72:	4c 89 c0             	mov    %r8,%rax
   140002e75:	c3                   	ret
   140002e76:	90                   	nop
   140002e77:	90                   	nop
   140002e78:	90                   	nop
   140002e79:	90                   	nop
   140002e7a:	90                   	nop
   140002e7b:	90                   	nop
   140002e7c:	90                   	nop
   140002e7d:	90                   	nop
   140002e7e:	90                   	nop
   140002e7f:	90                   	nop

0000000140002e80 <_Unwind_Resume>:
   140002e80:	ff 25 1a 64 40 00    	jmp    *0x40641a(%rip)        # 1404092a0 <__IAT_start__>
   140002e86:	90                   	nop
   140002e87:	90                   	nop
   140002e88:	0f 1f 84 00 00 00 00 	nopl   0x0(%rax,%rax,1)
   140002e8f:	00 

0000000140002e90 <___chkstk_ms>:
   140002e90:	51                   	push   %rcx
   140002e91:	50                   	push   %rax
   140002e92:	48 3d 00 10 00 00    	cmp    $0x1000,%rax
   140002e98:	48 8d 4c 24 18       	lea    0x18(%rsp),%rcx
   140002e9d:	72 19                	jb     140002eb8 <___chkstk_ms+0x28>
   140002e9f:	48 81 e9 00 10 00 00 	sub    $0x1000,%rcx
   140002ea6:	48 83 09 00          	orq    $0x0,(%rcx)
   140002eaa:	48 2d 00 10 00 00    	sub    $0x1000,%rax
   140002eb0:	48 3d 00 10 00 00    	cmp    $0x1000,%rax
   140002eb6:	77 e7                	ja     140002e9f <___chkstk_ms+0xf>
   140002eb8:	48 29 c1             	sub    %rax,%rcx
   140002ebb:	48 83 09 00          	orq    $0x0,(%rcx)
   140002ebf:	58                   	pop    %rax
   140002ec0:	59                   	pop    %rcx
   140002ec1:	c3                   	ret
   140002ec2:	90                   	nop
   140002ec3:	90                   	nop
   140002ec4:	90                   	nop
   140002ec5:	90                   	nop
   140002ec6:	90                   	nop
   140002ec7:	90                   	nop
   140002ec8:	90                   	nop
   140002ec9:	90                   	nop
   140002eca:	90                   	nop
   140002ecb:	90                   	nop
   140002ecc:	90                   	nop
   140002ecd:	90                   	nop
   140002ece:	90                   	nop
   140002ecf:	90                   	nop

0000000140002ed0 <_initterm_e>:
   140002ed0:	56                   	push   %rsi
   140002ed1:	53                   	push   %rbx
   140002ed2:	48 83 ec 28          	sub    $0x28,%rsp
   140002ed6:	48 89 cb             	mov    %rcx,%rbx
   140002ed9:	48 89 d6             	mov    %rdx,%rsi
   140002edc:	48 39 d1             	cmp    %rdx,%rcx
   140002edf:	73 26                	jae    140002f07 <_initterm_e+0x37>
   140002ee1:	0f 1f 40 00          	nopl   0x0(%rax)
   140002ee5:	66 66 2e 0f 1f 84 00 	data16 cs nopw 0x0(%rax,%rax,1)
   140002eec:	00 00 00 00 
   140002ef0:	48 8b 03             	mov    (%rbx),%rax
   140002ef3:	48 85 c0             	test   %rax,%rax
   140002ef6:	74 06                	je     140002efe <_initterm_e+0x2e>
   140002ef8:	ff d0                	call   *%rax
   140002efa:	85 c0                	test   %eax,%eax
   140002efc:	75 0b                	jne    140002f09 <_initterm_e+0x39>
   140002efe:	48 83 c3 08          	add    $0x8,%rbx
   140002f02:	48 39 f3             	cmp    %rsi,%rbx
   140002f05:	72 e9                	jb     140002ef0 <_initterm_e+0x20>
   140002f07:	31 c0                	xor    %eax,%eax
   140002f09:	48 83 c4 28          	add    $0x28,%rsp
   140002f0d:	5b                   	pop    %rbx
   140002f0e:	5e                   	pop    %rsi
   140002f0f:	c3                   	ret

0000000140002f10 <__p__fmode>:
   140002f10:	48 8b 05 79 28 00 00 	mov    0x2879(%rip),%rax        # 140005790 <.refptr.__imp__fmode>
   140002f17:	48 8b 00             	mov    (%rax),%rax
   140002f1a:	c3                   	ret
   140002f1b:	90                   	nop
   140002f1c:	90                   	nop
   140002f1d:	90                   	nop
   140002f1e:	90                   	nop
   140002f1f:	90                   	nop

0000000140002f20 <__p__commode>:
   140002f20:	48 8b 05 59 28 00 00 	mov    0x2859(%rip),%rax        # 140005780 <.refptr.__imp__commode>
   140002f27:	48 8b 00             	mov    (%rax),%rax
   140002f2a:	c3                   	ret
   140002f2b:	90                   	nop
   140002f2c:	90                   	nop
   140002f2d:	90                   	nop
   140002f2e:	90                   	nop
   140002f2f:	90                   	nop

0000000140002f30 <__p___initenv>:
   140002f30:	48 8b 05 39 28 00 00 	mov    0x2839(%rip),%rax        # 140005770 <.refptr.__imp___initenv>
   140002f37:	48 8b 00             	mov    (%rax),%rax
   140002f3a:	c3                   	ret
   140002f3b:	90                   	nop
   140002f3c:	90                   	nop
   140002f3d:	90                   	nop
   140002f3e:	90                   	nop
   140002f3f:	90                   	nop

0000000140002f40 <_get_invalid_parameter_handler>:
   140002f40:	48 8b 05 49 52 40 00 	mov    0x405249(%rip),%rax        # 140408190 <handler>
   140002f47:	c3                   	ret
   140002f48:	0f 1f 84 00 00 00 00 	nopl   0x0(%rax,%rax,1)
   140002f4f:	00 

0000000140002f50 <_set_invalid_parameter_handler>:
   140002f50:	48 89 c8             	mov    %rcx,%rax
   140002f53:	48 87 05 36 52 40 00 	xchg   %rax,0x405236(%rip)        # 140408190 <handler>
   140002f5a:	c3                   	ret
   140002f5b:	90                   	nop
   140002f5c:	90                   	nop
   140002f5d:	90                   	nop
   140002f5e:	90                   	nop
   140002f5f:	90                   	nop

0000000140002f60 <_configthreadlocale>:
   140002f60:	83 f9 01             	cmp    $0x1,%ecx
   140002f63:	74 0b                	je     140002f70 <_configthreadlocale+0x10>
   140002f65:	b8 02 00 00 00       	mov    $0x2,%eax
   140002f6a:	c3                   	ret
   140002f6b:	0f 1f 44 00 00       	nopl   0x0(%rax,%rax,1)
   140002f70:	b8 ff ff ff ff       	mov    $0xffffffff,%eax
   140002f75:	c3                   	ret
   140002f76:	90                   	nop
   140002f77:	90                   	nop
   140002f78:	90                   	nop
   140002f79:	90                   	nop
   140002f7a:	90                   	nop
   140002f7b:	90                   	nop
   140002f7c:	90                   	nop
   140002f7d:	90                   	nop
   140002f7e:	90                   	nop
   140002f7f:	90                   	nop

0000000140002f80 <__acrt_iob_func>:
   140002f80:	53                   	push   %rbx
   140002f81:	48 83 ec 20          	sub    $0x20,%rsp
   140002f85:	89 cb                	mov    %ecx,%ebx
   140002f87:	e8 24 00 00 00       	call   140002fb0 <__iob_func>
   140002f8c:	89 d9                	mov    %ebx,%ecx
   140002f8e:	48 8d 14 49          	lea    (%rcx,%rcx,2),%rdx
   140002f92:	48 c1 e2 04          	shl    $0x4,%rdx
   140002f96:	48 01 d0             	add    %rdx,%rax
   140002f99:	48 83 c4 20          	add    $0x20,%rsp
   140002f9d:	5b                   	pop    %rbx
   140002f9e:	c3                   	ret
   140002f9f:	90                   	nop

0000000140002fa0 <__C_specific_handler>:
   140002fa0:	ff 25 82 63 40 00    	jmp    *0x406382(%rip)        # 140409328 <__imp___C_specific_handler>
   140002fa6:	90                   	nop
   140002fa7:	90                   	nop

0000000140002fa8 <__getmainargs>:
   140002fa8:	ff 25 82 63 40 00    	jmp    *0x406382(%rip)        # 140409330 <__imp___getmainargs>
   140002fae:	90                   	nop
   140002faf:	90                   	nop

0000000140002fb0 <__iob_func>:
   140002fb0:	ff 25 8a 63 40 00    	jmp    *0x40638a(%rip)        # 140409340 <__imp___iob_func>
   140002fb6:	90                   	nop
   140002fb7:	90                   	nop

0000000140002fb8 <__set_app_type>:
   140002fb8:	ff 25 8a 63 40 00    	jmp    *0x40638a(%rip)        # 140409348 <__imp___set_app_type>
   140002fbe:	90                   	nop
   140002fbf:	90                   	nop

0000000140002fc0 <__setusermatherr>:
   140002fc0:	ff 25 8a 63 40 00    	jmp    *0x40638a(%rip)        # 140409350 <__imp___setusermatherr>
   140002fc6:	90                   	nop
   140002fc7:	90                   	nop

0000000140002fc8 <_amsg_exit>:
   140002fc8:	ff 25 8a 63 40 00    	jmp    *0x40638a(%rip)        # 140409358 <__imp__amsg_exit>
   140002fce:	90                   	nop
   140002fcf:	90                   	nop

0000000140002fd0 <_cexit>:
   140002fd0:	ff 25 8a 63 40 00    	jmp    *0x40638a(%rip)        # 140409360 <__imp__cexit>
   140002fd6:	90                   	nop
   140002fd7:	90                   	nop

0000000140002fd8 <_errno>:
   140002fd8:	ff 25 92 63 40 00    	jmp    *0x406392(%rip)        # 140409370 <__imp__errno>
   140002fde:	90                   	nop
   140002fdf:	90                   	nop

0000000140002fe0 <_initterm>:
   140002fe0:	ff 25 9a 63 40 00    	jmp    *0x40639a(%rip)        # 140409380 <__imp__initterm>
   140002fe6:	90                   	nop
   140002fe7:	90                   	nop

0000000140002fe8 <abort>:
   140002fe8:	ff 25 9a 63 40 00    	jmp    *0x40639a(%rip)        # 140409388 <__imp_abort>
   140002fee:	90                   	nop
   140002fef:	90                   	nop

0000000140002ff0 <_crt_atexit>:
   140002ff0:	ff 25 9a 63 40 00    	jmp    *0x40639a(%rip)        # 140409390 <__imp__crt_atexit>
   140002ff6:	90                   	nop
   140002ff7:	90                   	nop

0000000140002ff8 <calloc>:
   140002ff8:	ff 25 9a 63 40 00    	jmp    *0x40639a(%rip)        # 140409398 <__imp_calloc>
   140002ffe:	90                   	nop
   140002fff:	90                   	nop

0000000140003000 <exit>:
   140003000:	ff 25 9a 63 40 00    	jmp    *0x40639a(%rip)        # 1404093a0 <__imp_exit>
   140003006:	90                   	nop
   140003007:	90                   	nop

0000000140003008 <fprintf>:
   140003008:	ff 25 9a 63 40 00    	jmp    *0x40639a(%rip)        # 1404093a8 <__imp_fprintf>
   14000300e:	90                   	nop
   14000300f:	90                   	nop

0000000140003010 <free>:
   140003010:	ff 25 9a 63 40 00    	jmp    *0x40639a(%rip)        # 1404093b0 <__imp_free>
   140003016:	90                   	nop
   140003017:	90                   	nop

0000000140003018 <malloc>:
   140003018:	ff 25 9a 63 40 00    	jmp    *0x40639a(%rip)        # 1404093b8 <__imp_malloc>
   14000301e:	90                   	nop
   14000301f:	90                   	nop

0000000140003020 <memcpy>:
   140003020:	ff 25 9a 63 40 00    	jmp    *0x40639a(%rip)        # 1404093c0 <__imp_memcpy>
   140003026:	90                   	nop
   140003027:	90                   	nop

0000000140003028 <memset>:
   140003028:	ff 25 9a 63 40 00    	jmp    *0x40639a(%rip)        # 1404093c8 <__imp_memset>
   14000302e:	90                   	nop
   14000302f:	90                   	nop

0000000140003030 <signal>:
   140003030:	ff 25 9a 63 40 00    	jmp    *0x40639a(%rip)        # 1404093d0 <__imp_signal>
   140003036:	90                   	nop
   140003037:	90                   	nop

0000000140003038 <strlen>:
   140003038:	ff 25 9a 63 40 00    	jmp    *0x40639a(%rip)        # 1404093d8 <__imp_strlen>
   14000303e:	90                   	nop
   14000303f:	90                   	nop

0000000140003040 <strncmp>:
   140003040:	ff 25 9a 63 40 00    	jmp    *0x40639a(%rip)        # 1404093e0 <__imp_strncmp>
   140003046:	90                   	nop
   140003047:	90                   	nop

0000000140003048 <vfprintf>:
   140003048:	ff 25 9a 63 40 00    	jmp    *0x40639a(%rip)        # 1404093e8 <__imp_vfprintf>
   14000304e:	90                   	nop
   14000304f:	90                   	nop

0000000140003050 <VirtualQuery>:
   140003050:	ff 25 c2 62 40 00    	jmp    *0x4062c2(%rip)        # 140409318 <__imp_VirtualQuery>
   140003056:	90                   	nop
   140003057:	90                   	nop

0000000140003058 <VirtualProtect>:
   140003058:	ff 25 b2 62 40 00    	jmp    *0x4062b2(%rip)        # 140409310 <__imp_VirtualProtect>
   14000305e:	90                   	nop
   14000305f:	90                   	nop

0000000140003060 <TlsGetValue>:
   140003060:	ff 25 a2 62 40 00    	jmp    *0x4062a2(%rip)        # 140409308 <__imp_TlsGetValue>
   140003066:	90                   	nop
   140003067:	90                   	nop

0000000140003068 <Sleep>:
   140003068:	ff 25 92 62 40 00    	jmp    *0x406292(%rip)        # 140409300 <__imp_Sleep>
   14000306e:	90                   	nop
   14000306f:	90                   	nop

0000000140003070 <SetUnhandledExceptionFilter>:
   140003070:	ff 25 82 62 40 00    	jmp    *0x406282(%rip)        # 1404092f8 <__imp_SetUnhandledExceptionFilter>
   140003076:	90                   	nop
   140003077:	90                   	nop

0000000140003078 <SetThreadAffinityMask>:
   140003078:	ff 25 72 62 40 00    	jmp    *0x406272(%rip)        # 1404092f0 <__imp_SetThreadAffinityMask>
   14000307e:	90                   	nop
   14000307f:	90                   	nop

0000000140003080 <LeaveCriticalSection>:
   140003080:	ff 25 62 62 40 00    	jmp    *0x406262(%rip)        # 1404092e8 <__imp_LeaveCriticalSection>
   140003086:	90                   	nop
   140003087:	90                   	nop

0000000140003088 <InitializeCriticalSection>:
   140003088:	ff 25 52 62 40 00    	jmp    *0x406252(%rip)        # 1404092e0 <__imp_InitializeCriticalSection>
   14000308e:	90                   	nop
   14000308f:	90                   	nop

0000000140003090 <GetLogicalProcessorInformationEx>:
   140003090:	ff 25 42 62 40 00    	jmp    *0x406242(%rip)        # 1404092d8 <__imp_GetLogicalProcessorInformationEx>
   140003096:	90                   	nop
   140003097:	90                   	nop

0000000140003098 <GetLastError>:
   140003098:	ff 25 32 62 40 00    	jmp    *0x406232(%rip)        # 1404092d0 <__imp_GetLastError>
   14000309e:	90                   	nop
   14000309f:	90                   	nop

00000001400030a0 <GetCurrentThread>:
   1400030a0:	ff 25 22 62 40 00    	jmp    *0x406222(%rip)        # 1404092c8 <__imp_GetCurrentThread>
   1400030a6:	90                   	nop
   1400030a7:	90                   	nop

00000001400030a8 <GetCurrentProcessorNumber>:
   1400030a8:	ff 25 12 62 40 00    	jmp    *0x406212(%rip)        # 1404092c0 <__imp_GetCurrentProcessorNumber>
   1400030ae:	90                   	nop
   1400030af:	90                   	nop

00000001400030b0 <EnterCriticalSection>:
   1400030b0:	ff 25 02 62 40 00    	jmp    *0x406202(%rip)        # 1404092b8 <__imp_EnterCriticalSection>
   1400030b6:	90                   	nop
   1400030b7:	90                   	nop

00000001400030b8 <DeleteCriticalSection>:
   1400030b8:	ff 25 f2 61 40 00    	jmp    *0x4061f2(%rip)        # 1404092b0 <__imp_DeleteCriticalSection>
   1400030be:	90                   	nop
   1400030bf:	90                   	nop

00000001400030c0 <nanosleep64>:
   1400030c0:	ff 25 32 63 40 00    	jmp    *0x406332(%rip)        # 1404093f8 <__imp_nanosleep64>
   1400030c6:	90                   	nop
   1400030c7:	90                   	nop
   1400030c8:	0f 1f 84 00 00 00 00 	nopl   0x0(%rax,%rax,1)
   1400030cf:	00 

00000001400030d0 <_ZNSt11this_thread9sleep_forIxSt5ratioILx1ELx1000EEEEvRKNSt6chrono8durationIT_T0_EE>:
   1400030d0:	53                   	push   %rbx
   1400030d1:	48 83 ec 40          	sub    $0x40,%rsp
   1400030d5:	48 89 cb             	mov    %rcx,%rbx
   1400030d8:	e8 93 01 00 00       	call   140003270 <_ZNSt6chrono8durationIxSt5ratioILx1ELx1000EEE4zeroEv>
   1400030dd:	4c 8b 03             	mov    (%rbx),%r8
   1400030e0:	48 89 c2             	mov    %rax,%rdx
   1400030e3:	4c 89 c1             	mov    %r8,%rcx
   1400030e6:	e8 05 e5 ff ff       	call   1400015f0 <_ZNSt6chronoleIxSt5ratioILx1ELx1000EExS2_EEbRKNS_8durationIT_T0_EERKNS3_IT1_T2_EE.isra.0>
   1400030eb:	84 c0                	test   %al,%al
   1400030ed:	75 79                	jne    140003168 <_ZNSt11this_thread9sleep_forIxSt5ratioILx1ELx1000EEEEvRKNSt6chrono8durationIT_T0_EE+0x98>
   1400030ef:	4c 89 c1             	mov    %r8,%rcx
   1400030f2:	e8 59 e6 ff ff       	call   140001750 <_ZNSt6chrono13duration_castINS_8durationIxSt5ratioILx1ELx1EEEExS2_ILx1ELx1000EEEENSt9enable_ifIXsrNS_13__is_durationIT_EE5valueES8_E4typeERKNS1_IT0_T1_EE.isra.0>
   1400030f7:	48 8d 54 24 28       	lea    0x28(%rsp),%rdx
   1400030fc:	4c 89 c1             	mov    %r8,%rcx
   1400030ff:	48 89 44 24 28       	mov    %rax,0x28(%rsp)
   140003104:	48 89 c3             	mov    %rax,%rbx
   140003107:	c5 f8 77             	vzeroupper
   14000310a:	e8 e1 e7 ff ff       	call   1400018f0 <_ZNSt6chronomiIxSt5ratioILx1ELx1000EExS1_ILx1ELx1EEEENSt11common_typeIJNS_8durationIT_T0_EENS5_IT1_T2_EEEE4typeERKS8_RKSB_.isra.0>
   14000310f:	48 89 c1             	mov    %rax,%rcx
   140003112:	e8 49 e7 ff ff       	call   140001860 <_ZNSt6chrono13duration_castINS_8durationIxSt5ratioILx1ELx1000000000EEEExS2_ILx1ELx1000EEEENSt9enable_ifIXsrNS_13__is_durationIT_EE5valueES8_E4typeERKNS1_IT0_T1_EE.isra.0>
   140003117:	48 89 d9             	mov    %rbx,%rcx
   14000311a:	48 89 c2             	mov    %rax,%rdx
   14000311d:	e8 5e e5 ff ff       	call   140001680 <_ZNKSt6chrono8durationIxSt5ratioILx1ELx1EEE5countEv.isra.0>
   140003122:	48 89 d1             	mov    %rdx,%rcx
   140003125:	48 89 44 24 30       	mov    %rax,0x30(%rsp)
   14000312a:	e8 31 e6 ff ff       	call   140001760 <_ZNKSt6chrono8durationIxSt5ratioILx1ELx1000000000EEE5countEv.isra.0>
   14000312f:	89 44 24 38          	mov    %eax,0x38(%rsp)
   140003133:	c5 f8 77             	vzeroupper
   140003136:	48 8d 54 24 30       	lea    0x30(%rsp),%rdx
   14000313b:	48 8d 4c 24 30       	lea    0x30(%rsp),%rcx
   140003140:	e8 7b ff ff ff       	call   1400030c0 <nanosleep64>
   140003145:	83 f8 ff             	cmp    $0xffffffff,%eax
   140003148:	74 06                	je     140003150 <_ZNSt11this_thread9sleep_forIxSt5ratioILx1ELx1000EEEEvRKNSt6chrono8durationIT_T0_EE+0x80>
   14000314a:	48 83 c4 40          	add    $0x40,%rsp
   14000314e:	5b                   	pop    %rbx
   14000314f:	c3                   	ret
   140003150:	ff 15 1a 62 40 00    	call   *0x40621a(%rip)        # 140409370 <__imp__errno>
   140003156:	83 38 04             	cmpl   $0x4,(%rax)
   140003159:	74 db                	je     140003136 <_ZNSt11this_thread9sleep_forIxSt5ratioILx1ELx1000EEEEvRKNSt6chrono8durationIT_T0_EE+0x66>
   14000315b:	48 83 c4 40          	add    $0x40,%rsp
   14000315f:	5b                   	pop    %rbx
   140003160:	c3                   	ret
   140003161:	0f 1f 80 00 00 00 00 	nopl   0x0(%rax)
   140003168:	c5 f8 77             	vzeroupper
   14000316b:	48 83 c4 40          	add    $0x40,%rsp
   14000316f:	5b                   	pop    %rbx
   140003170:	c3                   	ret
   140003171:	90                   	nop
   140003172:	90                   	nop
   140003173:	90                   	nop
   140003174:	90                   	nop
   140003175:	90                   	nop
   140003176:	90                   	nop
   140003177:	90                   	nop
   140003178:	90                   	nop
   140003179:	90                   	nop
   14000317a:	90                   	nop
   14000317b:	90                   	nop
   14000317c:	90                   	nop
   14000317d:	90                   	nop
   14000317e:	90                   	nop
   14000317f:	90                   	nop

0000000140003180 <_ZNSt12_Vector_baseIhSaIhEE17_M_create_storageEy>:
   140003180:	56                   	push   %rsi
   140003181:	53                   	push   %rbx
   140003182:	48 83 ec 28          	sub    $0x28,%rsp
   140003186:	48 89 cb             	mov    %rcx,%rbx
   140003189:	48 89 d1             	mov    %rdx,%rcx
   14000318c:	48 89 d6             	mov    %rdx,%rsi
   14000318f:	e8 cc e3 ff ff       	call   140001560 <_ZNSt12_Vector_baseIhSaIhEE11_M_allocateEy.isra.0>
   140003194:	c4 e1 f9 6e c8       	vmovq  %rax,%xmm1
   140003199:	48 01 f0             	add    %rsi,%rax
   14000319c:	c5 f1 6c c1          	vpunpcklqdq %xmm1,%xmm1,%xmm0
   1400031a0:	48 89 43 10          	mov    %rax,0x10(%rbx)
   1400031a4:	c5 fa 7f 03          	vmovdqu %xmm0,(%rbx)
   1400031a8:	48 83 c4 28          	add    $0x28,%rsp
   1400031ac:	5b                   	pop    %rbx
   1400031ad:	5e                   	pop    %rsi
   1400031ae:	c3                   	ret
   1400031af:	90                   	nop

00000001400031b0 <_ZNSt12_Vector_baseIhSaIhEE17_Vector_impl_dataC2Ev>:
   1400031b0:	c5 f9 ef c0          	vpxor  %xmm0,%xmm0,%xmm0
   1400031b4:	48 c7 41 10 00 00 00 	movq   $0x0,0x10(%rcx)
   1400031bb:	00 
   1400031bc:	c5 fa 7f 01          	vmovdqu %xmm0,(%rcx)
   1400031c0:	c3                   	ret
   1400031c1:	90                   	nop
   1400031c2:	90                   	nop
   1400031c3:	90                   	nop
   1400031c4:	90                   	nop
   1400031c5:	90                   	nop
   1400031c6:	90                   	nop
   1400031c7:	90                   	nop
   1400031c8:	90                   	nop
   1400031c9:	90                   	nop
   1400031ca:	90                   	nop
   1400031cb:	90                   	nop
   1400031cc:	90                   	nop
   1400031cd:	90                   	nop
   1400031ce:	90                   	nop
   1400031cf:	90                   	nop

00000001400031d0 <_ZNSt12_Vector_baseIhSaIhEE19_M_get_Tp_allocatorEv>:
   1400031d0:	48 89 c8             	mov    %rcx,%rax
   1400031d3:	c3                   	ret
   1400031d4:	90                   	nop
   1400031d5:	90                   	nop
   1400031d6:	90                   	nop
   1400031d7:	90                   	nop
   1400031d8:	90                   	nop
   1400031d9:	90                   	nop
   1400031da:	90                   	nop
   1400031db:	90                   	nop
   1400031dc:	90                   	nop
   1400031dd:	90                   	nop
   1400031de:	90                   	nop
   1400031df:	90                   	nop

00000001400031e0 <_ZNSt27__uninitialized_default_n_1ILb1EE18__uninit_default_nIPhyEET_S3_T0_>:
   1400031e0:	53                   	push   %rbx
   1400031e1:	48 83 ec 30          	sub    $0x30,%rsp
   1400031e5:	48 89 cb             	mov    %rcx,%rbx
   1400031e8:	48 85 d2             	test   %rdx,%rdx
   1400031eb:	75 13                	jne    140003200 <_ZNSt27__uninitialized_default_n_1ILb1EE18__uninit_default_nIPhyEET_S3_T0_+0x20>
   1400031ed:	48 89 d8             	mov    %rbx,%rax
   1400031f0:	48 83 c4 30          	add    $0x30,%rsp
   1400031f4:	5b                   	pop    %rbx
   1400031f5:	c3                   	ret
   1400031f6:	66 2e 0f 1f 84 00 00 	cs nopw 0x0(%rax,%rax,1)
   1400031fd:	00 00 00 
   140003200:	48 89 54 24 48       	mov    %rdx,0x48(%rsp)
   140003205:	e8 06 05 00 00       	call   140003710 <_ZSt10_ConstructIhJEEvPT_DpOT0_>
   14000320a:	48 8b 54 24 48       	mov    0x48(%rsp),%rdx
   14000320f:	4c 8d 4b 01          	lea    0x1(%rbx),%r9
   140003213:	4c 89 4c 24 28       	mov    %r9,0x28(%rsp)
   140003218:	48 8d 4a ff          	lea    -0x1(%rdx),%rcx
   14000321c:	e8 0f 05 00 00       	call   140003730 <_ZSt17__size_to_integery>
   140003221:	48 85 c0             	test   %rax,%rax
   140003224:	75 12                	jne    140003238 <_ZNSt27__uninitialized_default_n_1ILb1EE18__uninit_default_nIPhyEET_S3_T0_+0x58>
   140003226:	48 8b 5c 24 28       	mov    0x28(%rsp),%rbx
   14000322b:	48 89 d8             	mov    %rbx,%rax
   14000322e:	48 83 c4 30          	add    $0x30,%rsp
   140003232:	5b                   	pop    %rbx
   140003233:	c3                   	ret
   140003234:	0f 1f 40 00          	nopl   0x0(%rax)
   140003238:	48 03 44 24 28       	add    0x28(%rsp),%rax
   14000323d:	44 0f b6 03          	movzbl (%rbx),%r8d
   140003241:	48 8b 4c 24 28       	mov    0x28(%rsp),%rcx
   140003246:	48 89 c2             	mov    %rax,%rdx
   140003249:	48 89 44 24 28       	mov    %rax,0x28(%rsp)
   14000324e:	e8 bd e2 ff ff       	call   140001510 <_ZSt9__fill_a1IhhEN9__gnu_cxx11__enable_ifIXaasrSt9__is_byteIT_E7__valueoosrSt10__are_sameIS3_T0_E7__valuesrSt20__memcpyable_integerIS6_E7__widthEvE6__typeEPS3_SC_RKS6_.isra.0>
   140003253:	48 8b 5c 24 28       	mov    0x28(%rsp),%rbx
   140003258:	48 89 d8             	mov    %rbx,%rax
   14000325b:	48 83 c4 30          	add    $0x30,%rsp
   14000325f:	5b                   	pop    %rbx
   140003260:	c3                   	ret
   140003261:	90                   	nop
   140003262:	90                   	nop
   140003263:	90                   	nop
   140003264:	90                   	nop
   140003265:	90                   	nop
   140003266:	90                   	nop
   140003267:	90                   	nop
   140003268:	90                   	nop
   140003269:	90                   	nop
   14000326a:	90                   	nop
   14000326b:	90                   	nop
   14000326c:	90                   	nop
   14000326d:	90                   	nop
   14000326e:	90                   	nop
   14000326f:	90                   	nop

0000000140003270 <_ZNSt6chrono8durationIxSt5ratioILx1ELx1000EEE4zeroEv>:
   140003270:	48 83 ec 38          	sub    $0x38,%rsp
   140003274:	31 d2                	xor    %edx,%edx
   140003276:	48 8d 4c 24 28       	lea    0x28(%rsp),%rcx
   14000327b:	e8 40 e3 ff ff       	call   1400015c0 <_ZNSt6chrono8durationIxSt5ratioILx1ELx1000EEEC1IxvEERKT_.isra.0>
   140003280:	48 8b 44 24 28       	mov    0x28(%rsp),%rax
   140003285:	48 83 c4 38          	add    $0x38,%rsp
   140003289:	c3                   	ret
   14000328a:	90                   	nop
   14000328b:	90                   	nop
   14000328c:	90                   	nop
   14000328d:	90                   	nop
   14000328e:	90                   	nop
   14000328f:	90                   	nop

0000000140003290 <_ZNSt6chrono8durationIxSt5ratioILx1ELx1000EEEC1IxS1_ILx1ELx1EEvEERKNS0_IT_T0_EE>:
   140003290:	48 83 ec 28          	sub    $0x28,%rsp
   140003294:	49 89 c8             	mov    %rcx,%r8
   140003297:	48 8b 0a             	mov    (%rdx),%rcx
   14000329a:	e8 21 e4 ff ff       	call   1400016c0 <_ZNSt6chrono13duration_castINS_8durationIxSt5ratioILx1ELx1000EEEExS2_ILx1ELx1EEEENSt9enable_ifIXsrNS_13__is_durationIT_EE5valueES8_E4typeERKNS1_IT0_T1_EE.isra.0>
   14000329f:	48 89 c1             	mov    %rax,%rcx
   1400032a2:	e8 e9 e2 ff ff       	call   140001590 <_ZNKSt6chrono8durationIxSt5ratioILx1ELx1000EEE5countEv.isra.0>
   1400032a7:	49 89 00             	mov    %rax,(%r8)
   1400032aa:	48 83 c4 28          	add    $0x28,%rsp
   1400032ae:	c3                   	ret
   1400032af:	90                   	nop

00000001400032b0 <_ZNSt6vectorIhSaIhEE21_M_default_initializeEy>:
   1400032b0:	53                   	push   %rbx
   1400032b1:	48 83 ec 20          	sub    $0x20,%rsp
   1400032b5:	48 89 cb             	mov    %rcx,%rbx
   1400032b8:	48 8b 09             	mov    (%rcx),%rcx
   1400032bb:	e8 b0 e6 ff ff       	call   140001970 <_ZSt27__uninitialized_default_n_aIPhyhET_S1_T0_RSaIT1_E.isra.0>
   1400032c0:	48 89 43 08          	mov    %rax,0x8(%rbx)
   1400032c4:	48 83 c4 20          	add    $0x20,%rsp
   1400032c8:	5b                   	pop    %rbx
   1400032c9:	c3                   	ret
   1400032ca:	90                   	nop
   1400032cb:	90                   	nop
   1400032cc:	90                   	nop
   1400032cd:	90                   	nop
   1400032ce:	90                   	nop
   1400032cf:	90                   	nop

00000001400032d0 <_ZNSt6vectorIhSaIhEED1Ev>:
   1400032d0:	48 8b 51 10          	mov    0x10(%rcx),%rdx
   1400032d4:	48 8b 09             	mov    (%rcx),%rcx
   1400032d7:	e9 44 e3 ff ff       	jmp    140001620 <_ZNSt12_Vector_baseIhSaIhEED2Ev.isra.0>
   1400032dc:	90                   	nop
   1400032dd:	90                   	nop
   1400032de:	90                   	nop
   1400032df:	90                   	nop

00000001400032e0 <_ZNSt7__cxx1112basic_stringIcSt11char_traitsIcESaIcEE22__resize_and_overwriteIZNS_9to_stringEiEUlPcyE_EEvyT_>:
   1400032e0:	57                   	push   %rdi
   1400032e1:	56                   	push   %rsi
   1400032e2:	53                   	push   %rbx
   1400032e3:	48 83 ec 20          	sub    $0x20,%rsp
   1400032e7:	48 89 cb             	mov    %rcx,%rbx
   1400032ea:	48 89 d6             	mov    %rdx,%rsi
   1400032ed:	4c 89 c7             	mov    %r8,%rdi
   1400032f0:	e8 6b ea ff ff       	call   140001d60 <_ZNSt7__cxx1112basic_stringIcSt11char_traitsIcESaIcEE7reserveEy>
   1400032f5:	48 89 d9             	mov    %rbx,%rcx
   1400032f8:	e8 b3 ea ff ff       	call   140001db0 <_ZNKSt7__cxx1112basic_stringIcSt11char_traitsIcESaIcEE7_M_dataEv>
   1400032fd:	49 89 f0             	mov    %rsi,%r8
   140003300:	48 89 f9             	mov    %rdi,%rcx
   140003303:	48 89 c2             	mov    %rax,%rdx
   140003306:	e8 45 05 00 00       	call   140003850 <_ZZNSt7__cxx119to_stringEiENKUlPcyE_clES0_y>
   14000330b:	48 89 d9             	mov    %rbx,%rcx
   14000330e:	48 89 c2             	mov    %rax,%rdx
   140003311:	e8 5a e3 ff ff       	call   140001670 <_ZZNSt7__cxx1112basic_stringIcSt11char_traitsIcESaIcEE22__resize_and_overwriteIZNS_9to_stringEiEUlPcyE_EEvyT_EN11_TerminatorD1Ev.isra.0>
   140003316:	90                   	nop
   140003317:	48 83 c4 20          	add    $0x20,%rsp
   14000331b:	5b                   	pop    %rbx
   14000331c:	5e                   	pop    %rsi
   14000331d:	5f                   	pop    %rdi
   14000331e:	c3                   	ret
   14000331f:	90                   	nop

0000000140003320 <_ZNSt7__cxx1112basic_stringIcSt11char_traitsIcESaIcEE22__resize_and_overwriteIZNS_9to_stringEmEUlPcyE_EEvyT_>:
   140003320:	57                   	push   %rdi
   140003321:	56                   	push   %rsi
   140003322:	53                   	push   %rbx
   140003323:	48 83 ec 20          	sub    $0x20,%rsp
   140003327:	48 89 cb             	mov    %rcx,%rbx
   14000332a:	48 89 d6             	mov    %rdx,%rsi
   14000332d:	44 89 c7             	mov    %r8d,%edi
   140003330:	e8 2b ea ff ff       	call   140001d60 <_ZNSt7__cxx1112basic_stringIcSt11char_traitsIcESaIcEE7reserveEy>
   140003335:	48 89 d9             	mov    %rbx,%rcx
   140003338:	e8 73 ea ff ff       	call   140001db0 <_ZNKSt7__cxx1112basic_stringIcSt11char_traitsIcESaIcEE7_M_dataEv>
   14000333d:	49 89 f0             	mov    %rsi,%r8
   140003340:	89 f9                	mov    %edi,%ecx
   140003342:	48 89 c2             	mov    %rax,%rdx
   140003345:	e8 26 e5 ff ff       	call   140001870 <_ZZNSt7__cxx119to_stringEmENKUlPcyE_clES0_y.isra.0>
   14000334a:	48 89 d9             	mov    %rbx,%rcx
   14000334d:	48 89 c2             	mov    %rax,%rdx
   140003350:	e8 0b e3 ff ff       	call   140001660 <_ZZNSt7__cxx1112basic_stringIcSt11char_traitsIcESaIcEE22__resize_and_overwriteIZNS_9to_stringEmEUlPcyE_EEvyT_EN11_TerminatorD1Ev.isra.0>
   140003355:	90                   	nop
   140003356:	48 83 c4 20          	add    $0x20,%rsp
   14000335a:	5b                   	pop    %rbx
   14000335b:	5e                   	pop    %rsi
   14000335c:	5f                   	pop    %rdi
   14000335d:	c3                   	ret
   14000335e:	90                   	nop
   14000335f:	90                   	nop

0000000140003360 <_ZNSt7__cxx119to_stringEi>:
   140003360:	55                   	push   %rbp
   140003361:	57                   	push   %rdi
   140003362:	56                   	push   %rsi
   140003363:	53                   	push   %rbx
   140003364:	48 83 ec 58          	sub    $0x58,%rsp
   140003368:	89 d5                	mov    %edx,%ebp
   14000336a:	89 d6                	mov    %edx,%esi
   14000336c:	48 89 cb             	mov    %rcx,%rbx
   14000336f:	c1 ed 1f             	shr    $0x1f,%ebp
   140003372:	f7 de                	neg    %esi
   140003374:	0f 48 f2             	cmovs  %edx,%esi
   140003377:	ba 0a 00 00 00       	mov    $0xa,%edx
   14000337c:	89 f1                	mov    %esi,%ecx
   14000337e:	e8 8d 00 00 00       	call   140003410 <_ZNSt8__detail14__to_chars_lenIjEEjT_i>
   140003383:	48 89 d9             	mov    %rbx,%rcx
   140003386:	89 c7                	mov    %eax,%edi
   140003388:	e8 c3 e9 ff ff       	call   140001d50 <_ZNSt7__cxx1112basic_stringIcSt11char_traitsIcESaIcEEC1Ev>
   14000338d:	89 7c 24 44          	mov    %edi,0x44(%rsp)
   140003391:	8d 54 3d 00          	lea    0x0(%rbp,%rdi,1),%edx
   140003395:	48 89 d9             	mov    %rbx,%rcx
   140003398:	40 88 6c 24 40       	mov    %bpl,0x40(%rsp)
   14000339d:	48 8b 44 24 40       	mov    0x40(%rsp),%rax
   1400033a2:	4c 8d 44 24 20       	lea    0x20(%rsp),%r8
   1400033a7:	89 74 24 28          	mov    %esi,0x28(%rsp)
   1400033ab:	48 89 44 24 20       	mov    %rax,0x20(%rsp)
   1400033b0:	e8 2b ff ff ff       	call   1400032e0 <_ZNSt7__cxx1112basic_stringIcSt11char_traitsIcESaIcEE22__resize_and_overwriteIZNS_9to_stringEiEUlPcyE_EEvyT_>
   1400033b5:	48 89 d8             	mov    %rbx,%rax
   1400033b8:	48 83 c4 58          	add    $0x58,%rsp
   1400033bc:	5b                   	pop    %rbx
   1400033bd:	5e                   	pop    %rsi
   1400033be:	5f                   	pop    %rdi
   1400033bf:	5d                   	pop    %rbp
   1400033c0:	c3                   	ret
   1400033c1:	90                   	nop
   1400033c2:	90                   	nop
   1400033c3:	90                   	nop
   1400033c4:	90                   	nop
   1400033c5:	90                   	nop
   1400033c6:	90                   	nop
   1400033c7:	90                   	nop
   1400033c8:	90                   	nop
   1400033c9:	90                   	nop
   1400033ca:	90                   	nop
   1400033cb:	90                   	nop
   1400033cc:	90                   	nop
   1400033cd:	90                   	nop
   1400033ce:	90                   	nop
   1400033cf:	90                   	nop

00000001400033d0 <_ZNSt7__cxx119to_stringEm>:
   1400033d0:	57                   	push   %rdi
   1400033d1:	56                   	push   %rsi
   1400033d2:	53                   	push   %rbx
   1400033d3:	48 83 ec 20          	sub    $0x20,%rsp
   1400033d7:	89 d6                	mov    %edx,%esi
   1400033d9:	48 89 cb             	mov    %rcx,%rbx
   1400033dc:	ba 0a 00 00 00       	mov    $0xa,%edx
   1400033e1:	89 f1                	mov    %esi,%ecx
   1400033e3:	e8 98 00 00 00       	call   140003480 <_ZNSt8__detail14__to_chars_lenImEEjT_i>
   1400033e8:	48 89 d9             	mov    %rbx,%rcx
   1400033eb:	89 c7                	mov    %eax,%edi
   1400033ed:	e8 5e e9 ff ff       	call   140001d50 <_ZNSt7__cxx1112basic_stringIcSt11char_traitsIcESaIcEEC1Ev>
   1400033f2:	89 fa                	mov    %edi,%edx
   1400033f4:	41 89 f0             	mov    %esi,%r8d
   1400033f7:	48 89 d9             	mov    %rbx,%rcx
   1400033fa:	e8 21 ff ff ff       	call   140003320 <_ZNSt7__cxx1112basic_stringIcSt11char_traitsIcESaIcEE22__resize_and_overwriteIZNS_9to_stringEmEUlPcyE_EEvyT_>
   1400033ff:	48 89 d8             	mov    %rbx,%rax
   140003402:	48 83 c4 20          	add    $0x20,%rsp
   140003406:	5b                   	pop    %rbx
   140003407:	5e                   	pop    %rsi
   140003408:	5f                   	pop    %rdi
   140003409:	c3                   	ret
   14000340a:	90                   	nop
   14000340b:	90                   	nop
   14000340c:	90                   	nop
   14000340d:	90                   	nop
   14000340e:	90                   	nop
   14000340f:	90                   	nop

0000000140003410 <_ZNSt8__detail14__to_chars_lenIjEEjT_i>:
   140003410:	89 c8                	mov    %ecx,%eax
   140003412:	41 89 d1             	mov    %edx,%r9d
   140003415:	39 d1                	cmp    %edx,%ecx
   140003417:	72 5f                	jb     140003478 <_ZNSt8__detail14__to_chars_lenIjEEjT_i+0x68>
   140003419:	41 89 d2             	mov    %edx,%r10d
   14000341c:	41 89 d3             	mov    %edx,%r11d
   14000341f:	89 d1                	mov    %edx,%ecx
   140003421:	41 b8 01 00 00 00    	mov    $0x1,%r8d
   140003427:	44 0f af d2          	imul   %edx,%r10d
   14000342b:	45 0f af da          	imul   %r10d,%r11d
   14000342f:	41 0f af cb          	imul   %r11d,%ecx
   140003433:	eb 19                	jmp    14000344e <_ZNSt8__detail14__to_chars_lenIjEEjT_i+0x3e>
   140003435:	0f 1f 00             	nopl   (%rax)
   140003438:	44 39 d8             	cmp    %r11d,%eax
   14000343b:	72 23                	jb     140003460 <_ZNSt8__detail14__to_chars_lenIjEEjT_i+0x50>
   14000343d:	39 c8                	cmp    %ecx,%eax
   14000343f:	72 2f                	jb     140003470 <_ZNSt8__detail14__to_chars_lenIjEEjT_i+0x60>
   140003441:	31 d2                	xor    %edx,%edx
   140003443:	41 83 c0 04          	add    $0x4,%r8d
   140003447:	f7 f1                	div    %ecx
   140003449:	44 39 c8             	cmp    %r9d,%eax
   14000344c:	72 09                	jb     140003457 <_ZNSt8__detail14__to_chars_lenIjEEjT_i+0x47>
   14000344e:	44 39 d0             	cmp    %r10d,%eax
   140003451:	73 e5                	jae    140003438 <_ZNSt8__detail14__to_chars_lenIjEEjT_i+0x28>
   140003453:	41 83 c0 01          	add    $0x1,%r8d
   140003457:	44 89 c0             	mov    %r8d,%eax
   14000345a:	c3                   	ret
   14000345b:	0f 1f 44 00 00       	nopl   0x0(%rax,%rax,1)
   140003460:	41 83 c0 02          	add    $0x2,%r8d
   140003464:	44 89 c0             	mov    %r8d,%eax
   140003467:	c3                   	ret
   140003468:	0f 1f 84 00 00 00 00 	nopl   0x0(%rax,%rax,1)
   14000346f:	00 
   140003470:	41 83 c0 03          	add    $0x3,%r8d
   140003474:	44 89 c0             	mov    %r8d,%eax
   140003477:	c3                   	ret
   140003478:	41 b8 01 00 00 00    	mov    $0x1,%r8d
   14000347e:	eb d7                	jmp    140003457 <_ZNSt8__detail14__to_chars_lenIjEEjT_i+0x47>

0000000140003480 <_ZNSt8__detail14__to_chars_lenImEEjT_i>:
   140003480:	89 c8                	mov    %ecx,%eax
   140003482:	41 89 d1             	mov    %edx,%r9d
   140003485:	39 d1                	cmp    %edx,%ecx
   140003487:	72 5f                	jb     1400034e8 <_ZNSt8__detail14__to_chars_lenImEEjT_i+0x68>
   140003489:	41 89 d2             	mov    %edx,%r10d
   14000348c:	41 89 d3             	mov    %edx,%r11d
   14000348f:	89 d1                	mov    %edx,%ecx
   140003491:	41 b8 01 00 00 00    	mov    $0x1,%r8d
   140003497:	44 0f af d2          	imul   %edx,%r10d
   14000349b:	45 0f af da          	imul   %r10d,%r11d
   14000349f:	41 0f af cb          	imul   %r11d,%ecx
   1400034a3:	eb 19                	jmp    1400034be <_ZNSt8__detail14__to_chars_lenImEEjT_i+0x3e>
   1400034a5:	0f 1f 00             	nopl   (%rax)
   1400034a8:	44 39 d8             	cmp    %r11d,%eax
   1400034ab:	72 23                	jb     1400034d0 <_ZNSt8__detail14__to_chars_lenImEEjT_i+0x50>
   1400034ad:	39 c8                	cmp    %ecx,%eax
   1400034af:	72 2f                	jb     1400034e0 <_ZNSt8__detail14__to_chars_lenImEEjT_i+0x60>
   1400034b1:	31 d2                	xor    %edx,%edx
   1400034b3:	41 83 c0 04          	add    $0x4,%r8d
   1400034b7:	f7 f1                	div    %ecx
   1400034b9:	44 39 c8             	cmp    %r9d,%eax
   1400034bc:	72 09                	jb     1400034c7 <_ZNSt8__detail14__to_chars_lenImEEjT_i+0x47>
   1400034be:	44 39 d0             	cmp    %r10d,%eax
   1400034c1:	73 e5                	jae    1400034a8 <_ZNSt8__detail14__to_chars_lenImEEjT_i+0x28>
   1400034c3:	41 83 c0 01          	add    $0x1,%r8d
   1400034c7:	44 89 c0             	mov    %r8d,%eax
   1400034ca:	c3                   	ret
   1400034cb:	0f 1f 44 00 00       	nopl   0x0(%rax,%rax,1)
   1400034d0:	41 83 c0 02          	add    $0x2,%r8d
   1400034d4:	44 89 c0             	mov    %r8d,%eax
   1400034d7:	c3                   	ret
   1400034d8:	0f 1f 84 00 00 00 00 	nopl   0x0(%rax,%rax,1)
   1400034df:	00 
   1400034e0:	41 83 c0 03          	add    $0x3,%r8d
   1400034e4:	44 89 c0             	mov    %r8d,%eax
   1400034e7:	c3                   	ret
   1400034e8:	41 b8 01 00 00 00    	mov    $0x1,%r8d
   1400034ee:	eb d7                	jmp    1400034c7 <_ZNSt8__detail14__to_chars_lenImEEjT_i+0x47>

00000001400034f0 <_ZNSt8__detail18__to_chars_10_implIjEEvPcjT_>:
   1400034f0:	48 81 ec d8 00 00 00 	sub    $0xd8,%rsp
   1400034f7:	c5 fe 6f 05 c1 1d 00 	vmovdqu 0x1dc1(%rip),%ymm0        # 1400052c0 <.rdata+0x2c0>
   1400034fe:	00 
   1400034ff:	49 ba 32 39 33 39 34 	movabs $0x3935393439333932,%r10
   140003506:	39 35 39 
   140003509:	49 bb 36 39 37 39 38 	movabs $0x39393839373936,%r11
   140003510:	39 39 00 
   140003513:	c5 fe 7f 04 24       	vmovdqu %ymm0,(%rsp)
   140003518:	c5 fe 6f 05 c0 1d 00 	vmovdqu 0x1dc0(%rip),%ymm0        # 1400052e0 <.rdata+0x2e0>
   14000351f:	00 
   140003520:	49 89 c9             	mov    %rcx,%r9
   140003523:	4c 89 9c 24 c1 00 00 	mov    %r11,0xc1(%rsp)
   14000352a:	00 
   14000352b:	c5 fe 7f 44 24 20    	vmovdqu %ymm0,0x20(%rsp)
   140003531:	c5 fe 6f 05 c7 1d 00 	vmovdqu 0x1dc7(%rip),%ymm0        # 140005300 <.rdata+0x300>
   140003538:	00 
   140003539:	c5 fe 7f 44 24 40    	vmovdqu %ymm0,0x40(%rsp)
   14000353f:	c5 fe 6f 05 d9 1d 00 	vmovdqu 0x1dd9(%rip),%ymm0        # 140005320 <.rdata+0x320>
   140003546:	00 
   140003547:	c5 fe 7f 44 24 60    	vmovdqu %ymm0,0x60(%rsp)
   14000354d:	c5 fe 6f 05 eb 1d 00 	vmovdqu 0x1deb(%rip),%ymm0        # 140005340 <.rdata+0x340>
   140003554:	00 
   140003555:	c5 fe 7f 84 24 80 00 	vmovdqu %ymm0,0x80(%rsp)
   14000355c:	00 00 
   14000355e:	c5 fe 6f 05 fa 1d 00 	vmovdqu 0x1dfa(%rip),%ymm0        # 140005360 <.rdata+0x360>
   140003565:	00 
   140003566:	c5 fe 7f 84 24 a0 00 	vmovdqu %ymm0,0xa0(%rsp)
   14000356d:	00 00 
   14000356f:	4c 89 94 24 b9 00 00 	mov    %r10,0xb9(%rsp)
   140003576:	00 
   140003577:	41 83 f8 63          	cmp    $0x63,%r8d
   14000357b:	76 49                	jbe    1400035c6 <_ZNSt8__detail18__to_chars_10_implIjEEvPcjT_+0xd6>
   14000357d:	8d 4a ff             	lea    -0x1(%rdx),%ecx
   140003580:	44 89 c2             	mov    %r8d,%edx
   140003583:	44 89 c0             	mov    %r8d,%eax
   140003586:	48 69 d2 1f 85 eb 51 	imul   $0x51eb851f,%rdx,%rdx
   14000358d:	48 c1 ea 25          	shr    $0x25,%rdx
   140003591:	44 6b d2 64          	imul   $0x64,%edx,%r10d
   140003595:	44 29 d0             	sub    %r10d,%eax
   140003598:	45 89 c2             	mov    %r8d,%r10d
   14000359b:	41 89 d0             	mov    %edx,%r8d
   14000359e:	89 ca                	mov    %ecx,%edx
   1400035a0:	01 c0                	add    %eax,%eax
   1400035a2:	44 8d 58 01          	lea    0x1(%rax),%r11d
   1400035a6:	0f b6 04 04          	movzbl (%rsp,%rax,1),%eax
   1400035aa:	46 0f b6 1c 1c       	movzbl (%rsp,%r11,1),%r11d
   1400035af:	45 88 1c 11          	mov    %r11b,(%r9,%rdx,1)
   1400035b3:	8d 51 ff             	lea    -0x1(%rcx),%edx
   1400035b6:	83 e9 02             	sub    $0x2,%ecx
   1400035b9:	41 88 04 11          	mov    %al,(%r9,%rdx,1)
   1400035bd:	41 81 fa 0f 27 00 00 	cmp    $0x270f,%r10d
   1400035c4:	77 ba                	ja     140003580 <_ZNSt8__detail18__to_chars_10_implIjEEvPcjT_+0x90>
   1400035c6:	41 8d 40 30          	lea    0x30(%r8),%eax
   1400035ca:	41 83 f8 09          	cmp    $0x9,%r8d
   1400035ce:	76 14                	jbe    1400035e4 <_ZNSt8__detail18__to_chars_10_implIjEEvPcjT_+0xf4>
   1400035d0:	45 01 c0             	add    %r8d,%r8d
   1400035d3:	41 8d 40 01          	lea    0x1(%r8),%eax
   1400035d7:	0f b6 04 04          	movzbl (%rsp,%rax,1),%eax
   1400035db:	41 88 41 01          	mov    %al,0x1(%r9)
   1400035df:	42 0f b6 04 04       	movzbl (%rsp,%r8,1),%eax
   1400035e4:	41 88 01             	mov    %al,(%r9)
   1400035e7:	c5 f8 77             	vzeroupper
   1400035ea:	48 81 c4 d8 00 00 00 	add    $0xd8,%rsp
   1400035f1:	c3                   	ret
   1400035f2:	90                   	nop
   1400035f3:	90                   	nop
   1400035f4:	90                   	nop
   1400035f5:	90                   	nop
   1400035f6:	90                   	nop
   1400035f7:	90                   	nop
   1400035f8:	90                   	nop
   1400035f9:	90                   	nop
   1400035fa:	90                   	nop
   1400035fb:	90                   	nop
   1400035fc:	90                   	nop
   1400035fd:	90                   	nop
   1400035fe:	90                   	nop
   1400035ff:	90                   	nop

0000000140003600 <_ZNSt8__detail18__to_chars_10_implImEEvPcjT_>:
   140003600:	48 81 ec d8 00 00 00 	sub    $0xd8,%rsp
   140003607:	c5 fe 6f 05 b1 1c 00 	vmovdqu 0x1cb1(%rip),%ymm0        # 1400052c0 <.rdata+0x2c0>
   14000360e:	00 
   14000360f:	49 ba 32 39 33 39 34 	movabs $0x3935393439333932,%r10
   140003616:	39 35 39 
   140003619:	49 bb 36 39 37 39 38 	movabs $0x39393839373936,%r11
   140003620:	39 39 00 
   140003623:	c5 fe 7f 04 24       	vmovdqu %ymm0,(%rsp)
   140003628:	c5 fe 6f 05 b0 1c 00 	vmovdqu 0x1cb0(%rip),%ymm0        # 1400052e0 <.rdata+0x2e0>
   14000362f:	00 
   140003630:	49 89 c9             	mov    %rcx,%r9
   140003633:	4c 89 9c 24 c1 00 00 	mov    %r11,0xc1(%rsp)
   14000363a:	00 
   14000363b:	c5 fe 7f 44 24 20    	vmovdqu %ymm0,0x20(%rsp)
   140003641:	c5 fe 6f 05 b7 1c 00 	vmovdqu 0x1cb7(%rip),%ymm0        # 140005300 <.rdata+0x300>
   140003648:	00 
   140003649:	c5 fe 7f 44 24 40    	vmovdqu %ymm0,0x40(%rsp)
   14000364f:	c5 fe 6f 05 c9 1c 00 	vmovdqu 0x1cc9(%rip),%ymm0        # 140005320 <.rdata+0x320>
   140003656:	00 
   140003657:	c5 fe 7f 44 24 60    	vmovdqu %ymm0,0x60(%rsp)
   14000365d:	c5 fe 6f 05 db 1c 00 	vmovdqu 0x1cdb(%rip),%ymm0        # 140005340 <.rdata+0x340>
   140003664:	00 
   140003665:	c5 fe 7f 84 24 80 00 	vmovdqu %ymm0,0x80(%rsp)
   14000366c:	00 00 
   14000366e:	c5 fe 6f 05 ea 1c 00 	vmovdqu 0x1cea(%rip),%ymm0        # 140005360 <.rdata+0x360>
   140003675:	00 
   140003676:	c5 fe 7f 84 24 a0 00 	vmovdqu %ymm0,0xa0(%rsp)
   14000367d:	00 00 
   14000367f:	4c 89 94 24 b9 00 00 	mov    %r10,0xb9(%rsp)
   140003686:	00 
   140003687:	41 83 f8 63          	cmp    $0x63,%r8d
   14000368b:	76 49                	jbe    1400036d6 <_ZNSt8__detail18__to_chars_10_implImEEvPcjT_+0xd6>
   14000368d:	8d 4a ff             	lea    -0x1(%rdx),%ecx
   140003690:	44 89 c2             	mov    %r8d,%edx
   140003693:	44 89 c0             	mov    %r8d,%eax
   140003696:	48 69 d2 1f 85 eb 51 	imul   $0x51eb851f,%rdx,%rdx
   14000369d:	48 c1 ea 25          	shr    $0x25,%rdx
   1400036a1:	44 6b d2 64          	imul   $0x64,%edx,%r10d
   1400036a5:	44 29 d0             	sub    %r10d,%eax
   1400036a8:	45 89 c2             	mov    %r8d,%r10d
   1400036ab:	41 89 d0             	mov    %edx,%r8d
   1400036ae:	89 ca                	mov    %ecx,%edx
   1400036b0:	01 c0                	add    %eax,%eax
   1400036b2:	44 8d 58 01          	lea    0x1(%rax),%r11d
   1400036b6:	0f b6 04 04          	movzbl (%rsp,%rax,1),%eax
   1400036ba:	46 0f b6 1c 1c       	movzbl (%rsp,%r11,1),%r11d
   1400036bf:	45 88 1c 11          	mov    %r11b,(%r9,%rdx,1)
   1400036c3:	8d 51 ff             	lea    -0x1(%rcx),%edx
   1400036c6:	83 e9 02             	sub    $0x2,%ecx
   1400036c9:	41 88 04 11          	mov    %al,(%r9,%rdx,1)
   1400036cd:	41 81 fa 0f 27 00 00 	cmp    $0x270f,%r10d
   1400036d4:	77 ba                	ja     140003690 <_ZNSt8__detail18__to_chars_10_implImEEvPcjT_+0x90>
   1400036d6:	41 8d 40 30          	lea    0x30(%r8),%eax
   1400036da:	41 83 f8 09          	cmp    $0x9,%r8d
   1400036de:	76 14                	jbe    1400036f4 <_ZNSt8__detail18__to_chars_10_implImEEvPcjT_+0xf4>
   1400036e0:	45 01 c0             	add    %r8d,%r8d
   1400036e3:	41 8d 40 01          	lea    0x1(%r8),%eax
   1400036e7:	0f b6 04 04          	movzbl (%rsp,%rax,1),%eax
   1400036eb:	41 88 41 01          	mov    %al,0x1(%r9)
   1400036ef:	42 0f b6 04 04       	movzbl (%rsp,%r8,1),%eax
   1400036f4:	41 88 01             	mov    %al,(%r9)
   1400036f7:	c5 f8 77             	vzeroupper
   1400036fa:	48 81 c4 d8 00 00 00 	add    $0xd8,%rsp
   140003701:	c3                   	ret
   140003702:	90                   	nop
   140003703:	90                   	nop
   140003704:	90                   	nop
   140003705:	90                   	nop
   140003706:	90                   	nop
   140003707:	90                   	nop
   140003708:	90                   	nop
   140003709:	90                   	nop
   14000370a:	90                   	nop
   14000370b:	90                   	nop
   14000370c:	90                   	nop
   14000370d:	90                   	nop
   14000370e:	90                   	nop
   14000370f:	90                   	nop

0000000140003710 <_ZSt10_ConstructIhJEEvPT_DpOT0_>:
   140003710:	48 83 ec 28          	sub    $0x28,%rsp
   140003714:	e8 d7 df ff ff       	call   1400016f0 <_ZnwyPv.isra.0>
   140003719:	c6 00 00             	movb   $0x0,(%rax)
   14000371c:	48 83 c4 28          	add    $0x28,%rsp
   140003720:	c3                   	ret
   140003721:	90                   	nop
   140003722:	90                   	nop
   140003723:	90                   	nop
   140003724:	90                   	nop
   140003725:	90                   	nop
   140003726:	90                   	nop
   140003727:	90                   	nop
   140003728:	90                   	nop
   140003729:	90                   	nop
   14000372a:	90                   	nop
   14000372b:	90                   	nop
   14000372c:	90                   	nop
   14000372d:	90                   	nop
   14000372e:	90                   	nop
   14000372f:	90                   	nop

0000000140003730 <_ZSt17__size_to_integery>:
   140003730:	48 89 c8             	mov    %rcx,%rax
   140003733:	c3                   	ret
   140003734:	90                   	nop
   140003735:	90                   	nop
   140003736:	90                   	nop
   140003737:	90                   	nop
   140003738:	90                   	nop
   140003739:	90                   	nop
   14000373a:	90                   	nop
   14000373b:	90                   	nop
   14000373c:	90                   	nop
   14000373d:	90                   	nop
   14000373e:	90                   	nop
   14000373f:	90                   	nop

0000000140003740 <_ZSt25__uninitialized_default_nIPhyET_S1_T0_>:
   140003740:	e9 9b fa ff ff       	jmp    1400031e0 <_ZNSt27__uninitialized_default_n_1ILb1EE18__uninit_default_nIPhyEET_S3_T0_>
   140003745:	90                   	nop
   140003746:	90                   	nop
   140003747:	90                   	nop
   140003748:	90                   	nop
   140003749:	90                   	nop
   14000374a:	90                   	nop
   14000374b:	90                   	nop
   14000374c:	90                   	nop
   14000374d:	90                   	nop
   14000374e:	90                   	nop
   14000374f:	90                   	nop

0000000140003750 <_ZSt3minIyERKT_S2_S2_>:
   140003750:	48 8b 01             	mov    (%rcx),%rax
   140003753:	48 39 02             	cmp    %rax,(%rdx)
   140003756:	48 89 c8             	mov    %rcx,%rax
   140003759:	48 0f 42 c2          	cmovb  %rdx,%rax
   14000375d:	c3                   	ret
   14000375e:	90                   	nop
   14000375f:	90                   	nop

0000000140003760 <_ZStplIcSt11char_traitsIcESaIcEENSt7__cxx1112basic_stringIT_T0_T1_EEOS8_PKS5_>:
   140003760:	53                   	push   %rbx
   140003761:	48 83 ec 20          	sub    $0x20,%rsp
   140003765:	48 89 cb             	mov    %rcx,%rbx
   140003768:	48 89 d1             	mov    %rdx,%rcx
   14000376b:	4c 89 c2             	mov    %r8,%rdx
   14000376e:	e8 0d e6 ff ff       	call   140001d80 <_ZNSt7__cxx1112basic_stringIcSt11char_traitsIcESaIcEE6appendEPKc>
   140003773:	48 89 d9             	mov    %rbx,%rcx
   140003776:	48 89 c2             	mov    %rax,%rdx
   140003779:	e8 da e5 ff ff       	call   140001d58 <_ZNSt7__cxx1112basic_stringIcSt11char_traitsIcESaIcEEC1EOS4_>
   14000377e:	48 89 d8             	mov    %rbx,%rax
   140003781:	48 83 c4 20          	add    $0x20,%rsp
   140003785:	5b                   	pop    %rbx
   140003786:	c3                   	ret
   140003787:	90                   	nop
   140003788:	90                   	nop
   140003789:	90                   	nop
   14000378a:	90                   	nop
   14000378b:	90                   	nop
   14000378c:	90                   	nop
   14000378d:	90                   	nop
   14000378e:	90                   	nop
   14000378f:	90                   	nop

0000000140003790 <_ZStplIcSt11char_traitsIcESaIcEENSt7__cxx1112basic_stringIT_T0_T1_EEOS8_S9_>:
   140003790:	55                   	push   %rbp
   140003791:	57                   	push   %rdi
   140003792:	56                   	push   %rsi
   140003793:	53                   	push   %rbx
   140003794:	48 83 ec 28          	sub    $0x28,%rsp
   140003798:	4c 89 c6             	mov    %r8,%rsi
   14000379b:	48 89 cf             	mov    %rcx,%rdi
   14000379e:	48 89 d1             	mov    %rdx,%rcx
   1400037a1:	48 89 d3             	mov    %rdx,%rbx
   1400037a4:	e8 0f e6 ff ff       	call   140001db8 <_ZNKSt7__cxx1112basic_stringIcSt11char_traitsIcESaIcEE4sizeEv>
   1400037a9:	48 89 f1             	mov    %rsi,%rcx
   1400037ac:	48 89 c5             	mov    %rax,%rbp
   1400037af:	e8 04 e6 ff ff       	call   140001db8 <_ZNKSt7__cxx1112basic_stringIcSt11char_traitsIcESaIcEE4sizeEv>
   1400037b4:	48 89 d9             	mov    %rbx,%rcx
   1400037b7:	48 01 c5             	add    %rax,%rbp
   1400037ba:	e8 e9 e5 ff ff       	call   140001da8 <_ZNKSt7__cxx1112basic_stringIcSt11char_traitsIcESaIcEE8capacityEv>
   1400037bf:	48 39 e8             	cmp    %rbp,%rax
   1400037c2:	73 0d                	jae    1400037d1 <_ZStplIcSt11char_traitsIcESaIcEENSt7__cxx1112basic_stringIT_T0_T1_EEOS8_S9_+0x41>
   1400037c4:	48 89 f1             	mov    %rsi,%rcx
   1400037c7:	e8 dc e5 ff ff       	call   140001da8 <_ZNKSt7__cxx1112basic_stringIcSt11char_traitsIcESaIcEE8capacityEv>
   1400037cc:	48 39 e8             	cmp    %rbp,%rax
   1400037cf:	73 27                	jae    1400037f8 <_ZStplIcSt11char_traitsIcESaIcEENSt7__cxx1112basic_stringIT_T0_T1_EEOS8_S9_+0x68>
   1400037d1:	48 89 f2             	mov    %rsi,%rdx
   1400037d4:	48 89 d9             	mov    %rbx,%rcx
   1400037d7:	e8 9c e5 ff ff       	call   140001d78 <_ZNSt7__cxx1112basic_stringIcSt11char_traitsIcESaIcEE6appendERKS4_>
   1400037dc:	48 89 f9             	mov    %rdi,%rcx
   1400037df:	48 89 c2             	mov    %rax,%rdx
   1400037e2:	e8 71 e5 ff ff       	call   140001d58 <_ZNSt7__cxx1112basic_stringIcSt11char_traitsIcESaIcEEC1EOS4_>
   1400037e7:	48 89 f8             	mov    %rdi,%rax
   1400037ea:	48 83 c4 28          	add    $0x28,%rsp
   1400037ee:	5b                   	pop    %rbx
   1400037ef:	5e                   	pop    %rsi
   1400037f0:	5f                   	pop    %rdi
   1400037f1:	5d                   	pop    %rbp
   1400037f2:	c3                   	ret
   1400037f3:	0f 1f 44 00 00       	nopl   0x0(%rax,%rax,1)
   1400037f8:	49 89 d8             	mov    %rbx,%r8
   1400037fb:	31 d2                	xor    %edx,%edx
   1400037fd:	48 89 f1             	mov    %rsi,%rcx
   140003800:	e8 63 e5 ff ff       	call   140001d68 <_ZNSt7__cxx1112basic_stringIcSt11char_traitsIcESaIcEE6insertEyRKS4_>
   140003805:	48 89 f9             	mov    %rdi,%rcx
   140003808:	48 89 c2             	mov    %rax,%rdx
   14000380b:	e8 48 e5 ff ff       	call   140001d58 <_ZNSt7__cxx1112basic_stringIcSt11char_traitsIcESaIcEEC1EOS4_>
   140003810:	48 89 f8             	mov    %rdi,%rax
   140003813:	48 83 c4 28          	add    $0x28,%rsp
   140003817:	5b                   	pop    %rbx
   140003818:	5e                   	pop    %rsi
   140003819:	5f                   	pop    %rdi
   14000381a:	5d                   	pop    %rbp
   14000381b:	c3                   	ret
   14000381c:	90                   	nop
   14000381d:	90                   	nop
   14000381e:	90                   	nop
   14000381f:	90                   	nop

0000000140003820 <_ZStplIcSt11char_traitsIcESaIcEENSt7__cxx1112basic_stringIT_T0_T1_EEPKS5_OS8_>:
   140003820:	53                   	push   %rbx
   140003821:	48 83 ec 20          	sub    $0x20,%rsp
   140003825:	48 89 cb             	mov    %rcx,%rbx
   140003828:	4c 89 c1             	mov    %r8,%rcx
   14000382b:	49 89 d0             	mov    %rdx,%r8
   14000382e:	31 d2                	xor    %edx,%edx
   140003830:	e8 3b e5 ff ff       	call   140001d70 <_ZNSt7__cxx1112basic_stringIcSt11char_traitsIcESaIcEE6insertEyPKc>
   140003835:	48 89 d9             	mov    %rbx,%rcx
   140003838:	48 89 c2             	mov    %rax,%rdx
   14000383b:	e8 18 e5 ff ff       	call   140001d58 <_ZNSt7__cxx1112basic_stringIcSt11char_traitsIcESaIcEEC1EOS4_>
   140003840:	48 89 d8             	mov    %rbx,%rax
   140003843:	48 83 c4 20          	add    $0x20,%rsp
   140003847:	5b                   	pop    %rbx
   140003848:	c3                   	ret
   140003849:	90                   	nop
   14000384a:	90                   	nop
   14000384b:	90                   	nop
   14000384c:	90                   	nop
   14000384d:	90                   	nop
   14000384e:	90                   	nop
   14000384f:	90                   	nop

0000000140003850 <_ZZNSt7__cxx119to_stringEiENKUlPcyE_clES0_y>:
   140003850:	53                   	push   %rbx
   140003851:	48 83 ec 20          	sub    $0x20,%rsp
   140003855:	c6 02 2d             	movb   $0x2d,(%rdx)
   140003858:	49 89 c9             	mov    %rcx,%r9
   14000385b:	8b 41 04             	mov    0x4(%rcx),%eax
   14000385e:	4c 89 c3             	mov    %r8,%rbx
   140003861:	0f b6 09             	movzbl (%rcx),%ecx
   140003864:	45 8b 41 08          	mov    0x8(%r9),%r8d
   140003868:	48 01 d1             	add    %rdx,%rcx
   14000386b:	89 c2                	mov    %eax,%edx
   14000386d:	e8 7e fc ff ff       	call   1400034f0 <_ZNSt8__detail18__to_chars_10_implIjEEvPcjT_>
   140003872:	48 89 d8             	mov    %rbx,%rax
   140003875:	48 83 c4 20          	add    $0x20,%rsp
   140003879:	5b                   	pop    %rbx
   14000387a:	c3                   	ret
   14000387b:	90                   	nop
   14000387c:	90                   	nop
   14000387d:	90                   	nop
   14000387e:	90                   	nop
   14000387f:	90                   	nop

0000000140003880 <_ZNSt12_Vector_baseIhSaIhEE12_Vector_implD1Ev.isra.0>:
   140003880:	c3                   	ret
   140003881:	90                   	nop
   140003882:	90                   	nop
   140003883:	90                   	nop
   140003884:	90                   	nop
   140003885:	90                   	nop
   140003886:	90                   	nop
   140003887:	90                   	nop
   140003888:	90                   	nop
   140003889:	90                   	nop
   14000388a:	90                   	nop
   14000388b:	90                   	nop
   14000388c:	90                   	nop
   14000388d:	90                   	nop
   14000388e:	90                   	nop
   14000388f:	90                   	nop

0000000140003890 <main>:
   140003890:	55                   	push   %rbp
   140003891:	57                   	push   %rdi
   140003892:	56                   	push   %rsi
   140003893:	53                   	push   %rbx
   140003894:	48 81 ec 88 00 00 00 	sub    $0x88,%rsp
   14000389b:	c5 f8 11 74 24 50    	vmovups %xmm6,0x50(%rsp)
   1400038a1:	c5 f8 11 7c 24 60    	vmovups %xmm7,0x60(%rsp)
   1400038a7:	c5 78 11 44 24 70    	vmovups %xmm8,0x70(%rsp)
   1400038ad:	e8 de e5 ff ff       	call   140001e90 <__main>
   1400038b2:	48 8b 1d 47 1e 00 00 	mov    0x1e47(%rip),%rbx        # 140005700 <__fu0__ZSt4cout>
   1400038b9:	48 8d 74 24 30       	lea    0x30(%rsp),%rsi
   1400038be:	48 8d 15 31 18 00 00 	lea    0x1831(%rip),%rdx        # 1400050f6 <.rdata+0xf6>
   1400038c5:	48 89 d9             	mov    %rbx,%rcx
   1400038c8:	e8 63 e4 ff ff       	call   140001d30 <_ZStlsISt11char_traitsIcEERSt13basic_ostreamIcT_ES5_PKc>
   1400038cd:	48 89 f1             	mov    %rsi,%rcx
   1400038d0:	48 89 c7             	mov    %rax,%rdi
   1400038d3:	e8 d8 e0 ff ff       	call   1400019b0 <_Z11GetCoreTypeB5cxx11v>
   1400038d8:	48 89 f2             	mov    %rsi,%rdx
   1400038db:	48 89 f9             	mov    %rdi,%rcx
   1400038de:	e8 45 e4 ff ff       	call   140001d28 <_ZStlsIcSt11char_traitsIcESaIcEERSt13basic_ostreamIT_T0_ES7_RKNSt7__cxx1112basic_stringIS4_S5_T1_EE>
   1400038e3:	48 8d 15 20 18 00 00 	lea    0x1820(%rip),%rdx        # 14000510a <.rdata+0x10a>
   1400038ea:	48 89 c1             	mov    %rax,%rcx
   1400038ed:	e8 3e e4 ff ff       	call   140001d30 <_ZStlsISt11char_traitsIcEERSt13basic_ostreamIcT_ES5_PKc>
   1400038f2:	48 89 f1             	mov    %rsi,%rcx
   1400038f5:	e8 4e e4 ff ff       	call   140001d48 <_ZNSt7__cxx1112basic_stringIcSt11char_traitsIcESaIcEED1Ev>
   1400038fa:	ff 15 c8 59 40 00    	call   *0x4059c8(%rip)        # 1404092c8 <__imp_GetCurrentThread>
   140003900:	ba 20 00 00 00       	mov    $0x20,%edx
   140003905:	48 89 c1             	mov    %rax,%rcx
   140003908:	ff 15 e2 59 40 00    	call   *0x4059e2(%rip)        # 1404092f0 <__imp_SetThreadAffinityMask>
   14000390e:	ba 0a 00 00 00       	mov    $0xa,%edx
   140003913:	48 89 f1             	mov    %rsi,%rcx
   140003916:	e8 25 dd ff ff       	call   140001640 <_ZNSt6chrono8durationIxSt5ratioILx1ELx1000EEEC1IivEERKT_.isra.0>
   14000391b:	c5 f8 77             	vzeroupper
   14000391e:	e8 ad f7 ff ff       	call   1400030d0 <_ZNSt11this_thread9sleep_forIxSt5ratioILx1ELx1000EEEEvRKNSt6chrono8durationIT_T0_EE>
   140003923:	48 8d 15 e2 17 00 00 	lea    0x17e2(%rip),%rdx        # 14000510c <.rdata+0x10c>
   14000392a:	48 89 d9             	mov    %rbx,%rcx
   14000392d:	e8 fe e3 ff ff       	call   140001d30 <_ZStlsISt11char_traitsIcEERSt13basic_ostreamIcT_ES5_PKc>
   140003932:	48 89 f1             	mov    %rsi,%rcx
   140003935:	48 89 c7             	mov    %rax,%rdi
   140003938:	e8 73 e0 ff ff       	call   1400019b0 <_Z11GetCoreTypeB5cxx11v>
   14000393d:	48 89 f2             	mov    %rsi,%rdx
   140003940:	48 89 f9             	mov    %rdi,%rcx
   140003943:	e8 e0 e3 ff ff       	call   140001d28 <_ZStlsIcSt11char_traitsIcESaIcEERSt13basic_ostreamIT_T0_ES7_RKNSt7__cxx1112basic_stringIS4_S5_T1_EE>
   140003948:	48 8d 15 bb 17 00 00 	lea    0x17bb(%rip),%rdx        # 14000510a <.rdata+0x10a>
   14000394f:	48 89 c1             	mov    %rax,%rcx
   140003952:	e8 d9 e3 ff ff       	call   140001d30 <_ZStlsISt11char_traitsIcEERSt13basic_ostreamIcT_ES5_PKc>
   140003957:	48 89 f1             	mov    %rsi,%rcx
   14000395a:	e8 e9 e3 ff ff       	call   140001d48 <_ZNSt7__cxx1112basic_stringIcSt11char_traitsIcESaIcEED1Ev>
   14000395f:	41 b8 00 00 40 00    	mov    $0x400000,%r8d
   140003965:	31 d2                	xor    %edx,%edx
   140003967:	48 8d 0d d2 46 00 00 	lea    0x46d2(%rip),%rcx        # 140008040 <_ZL12pixel_buffer>
   14000396e:	e8 b5 f6 ff ff       	call   140003028 <memset>
   140003973:	48 8d 15 a6 17 00 00 	lea    0x17a6(%rip),%rdx        # 140005120 <.rdata+0x120>
   14000397a:	48 89 d9             	mov    %rbx,%rcx
   14000397d:	e8 ae e3 ff ff       	call   140001d30 <_ZStlsISt11char_traitsIcEERSt13basic_ostreamIcT_ES5_PKc>
   140003982:	e8 09 e4 ff ff       	call   140001d90 <_ZNSt6chrono3_V212system_clock3nowEv>
   140003987:	45 31 c0             	xor    %r8d,%r8d
   14000398a:	48 89 c7             	mov    %rax,%rdi
   14000398d:	0f 1f 00             	nopl   (%rax)
   140003990:	44 89 c1             	mov    %r8d,%ecx
   140003993:	41 83 c0 04          	add    $0x4,%r8d
   140003997:	e8 f4 da ff ff       	call   140001490 <_ZL22raster_linear_alpha_s4Pjiii.constprop.0>
   14000399c:	41 81 f8 a0 0f 00 00 	cmp    $0xfa0,%r8d
   1400039a3:	75 eb                	jne    140003990 <main+0x100>
   1400039a5:	c5 c8 57 f6          	vxorps %xmm6,%xmm6,%xmm6
   1400039a9:	e8 e2 e3 ff ff       	call   140001d90 <_ZNSt6chrono3_V212system_clock3nowEv>
   1400039ae:	48 89 fa             	mov    %rdi,%rdx
   1400039b1:	48 89 f1             	mov    %rsi,%rcx
   1400039b4:	48 89 44 24 30       	mov    %rax,0x30(%rsp)
   1400039b9:	e8 42 de ff ff       	call   140001800 <_ZNSt6chronomiINS_3_V212system_clockENS_8durationIxSt5ratioILx1ELx1000000000EEEES6_EENSt11common_typeIJT0_T1_EE4typeERKNS_10time_pointIT_S8_EERKNSC_ISD_S9_EE.isra.0>
   1400039be:	48 8d 15 8e 17 00 00 	lea    0x178e(%rip),%rdx        # 140005153 <.rdata+0x153>
   1400039c5:	48 89 c1             	mov    %rax,%rcx
   1400039c8:	e8 63 dc ff ff       	call   140001630 <_ZNSt6chrono13duration_castINS_8durationIxSt5ratioILx1ELx1000000000EEEExS3_EENSt9enable_ifIXsrNS_13__is_durationIT_EE5valueES7_E4typeERKNS1_IT0_T1_EE.isra.0>
   1400039cd:	48 89 d9             	mov    %rbx,%rcx
   1400039d0:	48 89 c7             	mov    %rax,%rdi
   1400039d3:	c5 f8 77             	vzeroupper
   1400039d6:	e8 55 e3 ff ff       	call   140001d30 <_ZStlsISt11char_traitsIcEERSt13basic_ostreamIcT_ES5_PKc>
   1400039db:	48 89 f9             	mov    %rdi,%rcx
   1400039de:	49 89 c0             	mov    %rax,%r8
   1400039e1:	e8 7a dd ff ff       	call   140001760 <_ZNKSt6chrono8durationIxSt5ratioILx1ELx1000000000EEE5countEv.isra.0>
   1400039e6:	4c 89 c1             	mov    %r8,%rcx
   1400039e9:	48 89 c2             	mov    %rax,%rdx
   1400039ec:	c5 f8 77             	vzeroupper
   1400039ef:	48 89 c7             	mov    %rax,%rdi
   1400039f2:	e8 a1 e3 ff ff       	call   140001d98 <_ZNSolsEx>
   1400039f7:	48 8d 15 71 17 00 00 	lea    0x1771(%rip),%rdx        # 14000516f <.rdata+0x16f>
   1400039fe:	48 89 c1             	mov    %rax,%rcx
   140003a01:	e8 2a e3 ff ff       	call   140001d30 <_ZStlsISt11char_traitsIcEERSt13basic_ostreamIcT_ES5_PKc>
   140003a06:	48 8d 15 73 17 00 00 	lea    0x1773(%rip),%rdx        # 140005180 <.rdata+0x180>
   140003a0d:	48 89 d9             	mov    %rbx,%rcx
   140003a10:	e8 1b e3 ff ff       	call   140001d30 <_ZStlsISt11char_traitsIcEERSt13basic_ostreamIcT_ES5_PKc>
   140003a15:	48 89 c1             	mov    %rax,%rcx
   140003a18:	c4 61 cb 2a c7       	vcvtsi2sd %rdi,%xmm6,%xmm8
   140003a1d:	c5 bb 5e 0d 5b 19 00 	vdivsd 0x195b(%rip),%xmm8,%xmm1        # 140005380 <.rdata+0x380>
   140003a24:	00 
   140003a25:	e8 76 e3 ff ff       	call   140001da0 <_ZNSolsEd>
   140003a2a:	48 8d 15 3e 17 00 00 	lea    0x173e(%rip),%rdx        # 14000516f <.rdata+0x16f>
   140003a31:	48 89 c1             	mov    %rax,%rcx
   140003a34:	e8 f7 e2 ff ff       	call   140001d30 <_ZStlsISt11char_traitsIcEERSt13basic_ostreamIcT_ES5_PKc>
   140003a39:	41 b8 00 00 40 00    	mov    $0x400000,%r8d
   140003a3f:	31 d2                	xor    %edx,%edx
   140003a41:	48 8d 0d f8 45 00 00 	lea    0x45f8(%rip),%rcx        # 140008040 <_ZL12pixel_buffer>
   140003a48:	e8 db f5 ff ff       	call   140003028 <memset>
   140003a4d:	48 8d 15 4c 17 00 00 	lea    0x174c(%rip),%rdx        # 1400051a0 <.rdata+0x1a0>
   140003a54:	48 89 d9             	mov    %rbx,%rcx
   140003a57:	e8 d4 e2 ff ff       	call   140001d30 <_ZStlsISt11char_traitsIcEERSt13basic_ostreamIcT_ES5_PKc>
   140003a5c:	e8 2f e3 ff ff       	call   140001d90 <_ZNSt6chrono3_V212system_clock3nowEv>
   140003a61:	45 31 c0             	xor    %r8d,%r8d
   140003a64:	48 89 c7             	mov    %rax,%rdi
   140003a67:	66 0f 1f 84 00 00 00 	nopw   0x0(%rax,%rax,1)
   140003a6e:	00 00 
   140003a70:	44 89 c1             	mov    %r8d,%ecx
   140003a73:	41 83 c0 04          	add    $0x4,%r8d
   140003a77:	e8 74 da ff ff       	call   1400014f0 <_ZL31raster_linear_alpha_s4_baselinePjiii.constprop.0>
   140003a7c:	41 81 f8 a0 0f 00 00 	cmp    $0xfa0,%r8d
   140003a83:	75 eb                	jne    140003a70 <main+0x1e0>
   140003a85:	e8 06 e3 ff ff       	call   140001d90 <_ZNSt6chrono3_V212system_clock3nowEv>
   140003a8a:	48 89 fa             	mov    %rdi,%rdx
   140003a8d:	48 89 f1             	mov    %rsi,%rcx
   140003a90:	48 89 44 24 30       	mov    %rax,0x30(%rsp)
   140003a95:	e8 66 dd ff ff       	call   140001800 <_ZNSt6chronomiINS_3_V212system_clockENS_8durationIxSt5ratioILx1ELx1000000000EEEES6_EENSt11common_typeIJT0_T1_EE4typeERKNS_10time_pointIT_S8_EERKNSC_ISD_S9_EE.isra.0>
   140003a9a:	48 8d 15 37 17 00 00 	lea    0x1737(%rip),%rdx        # 1400051d8 <.rdata+0x1d8>
   140003aa1:	48 89 c1             	mov    %rax,%rcx
   140003aa4:	e8 87 db ff ff       	call   140001630 <_ZNSt6chrono13duration_castINS_8durationIxSt5ratioILx1ELx1000000000EEEExS3_EENSt9enable_ifIXsrNS_13__is_durationIT_EE5valueES7_E4typeERKNS1_IT0_T1_EE.isra.0>
   140003aa9:	48 89 d9             	mov    %rbx,%rcx
   140003aac:	48 89 c7             	mov    %rax,%rdi
   140003aaf:	c5 f8 77             	vzeroupper
   140003ab2:	e8 79 e2 ff ff       	call   140001d30 <_ZStlsISt11char_traitsIcEERSt13basic_ostreamIcT_ES5_PKc>
   140003ab7:	48 89 f9             	mov    %rdi,%rcx
   140003aba:	49 89 c0             	mov    %rax,%r8
   140003abd:	e8 9e dc ff ff       	call   140001760 <_ZNKSt6chrono8durationIxSt5ratioILx1ELx1000000000EEE5countEv.isra.0>
   140003ac2:	4c 89 c1             	mov    %r8,%rcx
   140003ac5:	48 89 c2             	mov    %rax,%rdx
   140003ac8:	c5 f8 77             	vzeroupper
   140003acb:	48 89 c7             	mov    %rax,%rdi
   140003ace:	e8 c5 e2 ff ff       	call   140001d98 <_ZNSolsEx>
   140003ad3:	48 8d 15 95 16 00 00 	lea    0x1695(%rip),%rdx        # 14000516f <.rdata+0x16f>
   140003ada:	48 89 c1             	mov    %rax,%rcx
   140003add:	e8 4e e2 ff ff       	call   140001d30 <_ZStlsISt11char_traitsIcEERSt13basic_ostreamIcT_ES5_PKc>
   140003ae2:	48 8d 15 0f 17 00 00 	lea    0x170f(%rip),%rdx        # 1400051f8 <.rdata+0x1f8>
   140003ae9:	48 89 d9             	mov    %rbx,%rcx
   140003aec:	e8 3f e2 ff ff       	call   140001d30 <_ZStlsISt11char_traitsIcEERSt13basic_ostreamIcT_ES5_PKc>
   140003af1:	48 89 c1             	mov    %rax,%rcx
   140003af4:	c4 e1 cb 2a ff       	vcvtsi2sd %rdi,%xmm6,%xmm7
   140003af9:	c5 c3 5e 0d 7f 18 00 	vdivsd 0x187f(%rip),%xmm7,%xmm1        # 140005380 <.rdata+0x380>
   140003b00:	00 
   140003b01:	e8 9a e2 ff ff       	call   140001da0 <_ZNSolsEd>
   140003b06:	48 8d 15 62 16 00 00 	lea    0x1662(%rip),%rdx        # 14000516f <.rdata+0x16f>
   140003b0d:	48 89 c1             	mov    %rax,%rcx
   140003b10:	e8 1b e2 ff ff       	call   140001d30 <_ZStlsISt11char_traitsIcEERSt13basic_ostreamIcT_ES5_PKc>
   140003b15:	48 8d 15 00 17 00 00 	lea    0x1700(%rip),%rdx        # 14000521c <.rdata+0x21c>
   140003b1c:	48 89 d9             	mov    %rbx,%rcx
   140003b1f:	c4 c1 43 5e c8       	vdivsd %xmm8,%xmm7,%xmm1
   140003b24:	c5 fb 11 4c 24 28    	vmovsd %xmm1,0x28(%rsp)
   140003b2a:	e8 01 e2 ff ff       	call   140001d30 <_ZStlsISt11char_traitsIcEERSt13basic_ostreamIcT_ES5_PKc>
   140003b2f:	c5 fb 10 4c 24 28    	vmovsd 0x28(%rsp),%xmm1
   140003b35:	48 89 c1             	mov    %rax,%rcx
   140003b38:	e8 63 e2 ff ff       	call   140001da0 <_ZNSolsEd>
   140003b3d:	48 8d 15 e3 16 00 00 	lea    0x16e3(%rip),%rdx        # 140005227 <.rdata+0x227>
   140003b44:	48 89 c1             	mov    %rax,%rcx
   140003b47:	e8 e4 e1 ff ff       	call   140001d30 <_ZStlsISt11char_traitsIcEERSt13basic_ostreamIcT_ES5_PKc>
   140003b4c:	48 8d 15 e5 16 00 00 	lea    0x16e5(%rip),%rdx        # 140005238 <.rdata+0x238>
   140003b53:	48 89 d9             	mov    %rbx,%rcx
   140003b56:	e8 d5 e1 ff ff       	call   140001d30 <_ZStlsISt11char_traitsIcEERSt13basic_ostreamIcT_ES5_PKc>
   140003b5b:	41 b8 00 00 40 00    	mov    $0x400000,%r8d
   140003b61:	31 d2                	xor    %edx,%edx
   140003b63:	48 8d 0d d6 44 00 00 	lea    0x44d6(%rip),%rcx        # 140008040 <_ZL12pixel_buffer>
   140003b6a:	e8 b9 f4 ff ff       	call   140003028 <memset>
   140003b6f:	e8 1c e2 ff ff       	call   140001d90 <_ZNSt6chrono3_V212system_clock3nowEv>
   140003b74:	45 31 c0             	xor    %r8d,%r8d
   140003b77:	48 89 c7             	mov    %rax,%rdi
   140003b7a:	66 0f 1f 44 00 00    	nopw   0x0(%rax,%rax,1)
   140003b80:	44 89 c1             	mov    %r8d,%ecx
   140003b83:	41 83 c0 04          	add    $0x4,%r8d
   140003b87:	e8 04 d9 ff ff       	call   140001490 <_ZL22raster_linear_alpha_s4Pjiii.constprop.0>
   140003b8c:	41 81 f8 00 00 10 00 	cmp    $0x100000,%r8d
   140003b93:	75 eb                	jne    140003b80 <main+0x2f0>
   140003b95:	e8 f6 e1 ff ff       	call   140001d90 <_ZNSt6chrono3_V212system_clock3nowEv>
   140003b9a:	48 89 fa             	mov    %rdi,%rdx
   140003b9d:	48 89 f1             	mov    %rsi,%rcx
   140003ba0:	48 89 44 24 30       	mov    %rax,0x30(%rsp)
   140003ba5:	e8 56 dc ff ff       	call   140001800 <_ZNSt6chronomiINS_3_V212system_clockENS_8durationIxSt5ratioILx1ELx1000000000EEEES6_EENSt11common_typeIJT0_T1_EE4typeERKNS_10time_pointIT_S8_EERKNSC_ISD_S9_EE.isra.0>
   140003baa:	41 b8 00 00 40 00    	mov    $0x400000,%r8d
   140003bb0:	48 89 c1             	mov    %rax,%rcx
   140003bb3:	e8 f8 db ff ff       	call   1400017b0 <_ZNSt6chrono13duration_castINS_8durationIxSt5ratioILx1ELx1000000EEEExS2_ILx1ELx1000000000EEEENSt9enable_ifIXsrNS_13__is_durationIT_EE5valueES8_E4typeERKNS1_IT0_T1_EE.isra.0>
   140003bb8:	31 d2                	xor    %edx,%edx
   140003bba:	48 8d 0d 7f 44 00 00 	lea    0x447f(%rip),%rcx        # 140008040 <_ZL12pixel_buffer>
   140003bc1:	c5 f8 77             	vzeroupper
   140003bc4:	48 89 c5             	mov    %rax,%rbp
   140003bc7:	e8 5c f4 ff ff       	call   140003028 <memset>
   140003bcc:	e8 bf e1 ff ff       	call   140001d90 <_ZNSt6chrono3_V212system_clock3nowEv>
   140003bd1:	45 31 c0             	xor    %r8d,%r8d
   140003bd4:	48 89 c7             	mov    %rax,%rdi
   140003bd7:	66 0f 1f 84 00 00 00 	nopw   0x0(%rax,%rax,1)
   140003bde:	00 00 
   140003be0:	44 89 c1             	mov    %r8d,%ecx
   140003be3:	41 83 c0 04          	add    $0x4,%r8d
   140003be7:	e8 04 d9 ff ff       	call   1400014f0 <_ZL31raster_linear_alpha_s4_baselinePjiii.constprop.0>
   140003bec:	41 81 f8 00 00 10 00 	cmp    $0x100000,%r8d
   140003bf3:	75 eb                	jne    140003be0 <main+0x350>
   140003bf5:	e8 96 e1 ff ff       	call   140001d90 <_ZNSt6chrono3_V212system_clock3nowEv>
   140003bfa:	48 89 fa             	mov    %rdi,%rdx
   140003bfd:	48 89 f1             	mov    %rsi,%rcx
   140003c00:	48 89 44 24 30       	mov    %rax,0x30(%rsp)
   140003c05:	e8 f6 db ff ff       	call   140001800 <_ZNSt6chronomiINS_3_V212system_clockENS_8durationIxSt5ratioILx1ELx1000000000EEEES6_EENSt11common_typeIJT0_T1_EE4typeERKNS_10time_pointIT_S8_EERKNSC_ISD_S9_EE.isra.0>
   140003c0a:	48 89 c1             	mov    %rax,%rcx
   140003c0d:	e8 9e db ff ff       	call   1400017b0 <_ZNSt6chrono13duration_castINS_8durationIxSt5ratioILx1ELx1000000EEEExS2_ILx1ELx1000000000EEEENSt9enable_ifIXsrNS_13__is_durationIT_EE5valueES8_E4typeERKNS1_IT0_T1_EE.isra.0>
   140003c12:	48 89 d9             	mov    %rbx,%rcx
   140003c15:	48 8d 15 4c 16 00 00 	lea    0x164c(%rip),%rdx        # 140005268 <.rdata+0x268>
   140003c1c:	c5 f8 77             	vzeroupper
   140003c1f:	48 89 c7             	mov    %rax,%rdi
   140003c22:	e8 09 e1 ff ff       	call   140001d30 <_ZStlsISt11char_traitsIcEERSt13basic_ostreamIcT_ES5_PKc>
   140003c27:	48 89 e9             	mov    %rbp,%rcx
   140003c2a:	49 89 c0             	mov    %rax,%r8
   140003c2d:	e8 9e da ff ff       	call   1400016d0 <_ZNKSt6chrono8durationIxSt5ratioILx1ELx1000000EEE5countEv.isra.0>
   140003c32:	4c 89 c1             	mov    %r8,%rcx
   140003c35:	48 89 c2             	mov    %rax,%rdx
   140003c38:	c5 f8 77             	vzeroupper
   140003c3b:	48 89 c6             	mov    %rax,%rsi
   140003c3e:	e8 55 e1 ff ff       	call   140001d98 <_ZNSolsEx>
   140003c43:	48 8d 15 31 16 00 00 	lea    0x1631(%rip),%rdx        # 14000527b <.rdata+0x27b>
   140003c4a:	48 89 c1             	mov    %rax,%rcx
   140003c4d:	e8 de e0 ff ff       	call   140001d30 <_ZStlsISt11char_traitsIcEERSt13basic_ostreamIcT_ES5_PKc>
   140003c52:	48 89 d9             	mov    %rbx,%rcx
   140003c55:	48 8d 15 2e 16 00 00 	lea    0x162e(%rip),%rdx        # 14000528a <.rdata+0x28a>
   140003c5c:	e8 cf e0 ff ff       	call   140001d30 <_ZStlsISt11char_traitsIcEERSt13basic_ostreamIcT_ES5_PKc>
   140003c61:	48 89 f9             	mov    %rdi,%rcx
   140003c64:	49 89 c0             	mov    %rax,%r8
   140003c67:	e8 64 da ff ff       	call   1400016d0 <_ZNKSt6chrono8durationIxSt5ratioILx1ELx1000000EEE5countEv.isra.0>
   140003c6c:	4c 89 c1             	mov    %r8,%rcx
   140003c6f:	48 89 c2             	mov    %rax,%rdx
   140003c72:	c5 f8 77             	vzeroupper
   140003c75:	48 89 c7             	mov    %rax,%rdi
   140003c78:	e8 1b e1 ff ff       	call   140001d98 <_ZNSolsEx>
   140003c7d:	48 8d 15 f7 15 00 00 	lea    0x15f7(%rip),%rdx        # 14000527b <.rdata+0x27b>
   140003c84:	48 89 c1             	mov    %rax,%rcx
   140003c87:	e8 a4 e0 ff ff       	call   140001d30 <_ZStlsISt11char_traitsIcEERSt13basic_ostreamIcT_ES5_PKc>
   140003c8c:	48 8d 15 0e 16 00 00 	lea    0x160e(%rip),%rdx        # 1400052a1 <.rdata+0x2a1>
   140003c93:	48 89 d9             	mov    %rbx,%rcx
   140003c96:	e8 95 e0 ff ff       	call   140001d30 <_ZStlsISt11char_traitsIcEERSt13basic_ostreamIcT_ES5_PKc>
   140003c9b:	c4 e1 cb 2a c7       	vcvtsi2sd %rdi,%xmm6,%xmm0
   140003ca0:	c5 f9 28 c8          	vmovapd %xmm0,%xmm1
   140003ca4:	c4 e1 cb 2a c6       	vcvtsi2sd %rsi,%xmm6,%xmm0
   140003ca9:	48 89 c1             	mov    %rax,%rcx
   140003cac:	c5 f3 5e c8          	vdivsd %xmm0,%xmm1,%xmm1
   140003cb0:	e8 eb e0 ff ff       	call   140001da0 <_ZNSolsEd>
   140003cb5:	48 8d 15 fb 15 00 00 	lea    0x15fb(%rip),%rdx        # 1400052b7 <.rdata+0x2b7>
   140003cbc:	48 89 c1             	mov    %rax,%rcx
   140003cbf:	e8 6c e0 ff ff       	call   140001d30 <_ZStlsISt11char_traitsIcEERSt13basic_ostreamIcT_ES5_PKc>
   140003cc4:	90                   	nop
   140003cc5:	c5 f8 10 74 24 50    	vmovups 0x50(%rsp),%xmm6
   140003ccb:	c5 f8 10 7c 24 60    	vmovups 0x60(%rsp),%xmm7
   140003cd1:	31 c0                	xor    %eax,%eax
   140003cd3:	c5 78 10 44 24 70    	vmovups 0x70(%rsp),%xmm8
   140003cd9:	48 81 c4 88 00 00 00 	add    $0x88,%rsp
   140003ce0:	5b                   	pop    %rbx
   140003ce1:	5e                   	pop    %rsi
   140003ce2:	5f                   	pop    %rdi
   140003ce3:	5d                   	pop    %rbp
   140003ce4:	c3                   	ret
   140003ce5:	48 89 c3             	mov    %rax,%rbx
   140003ce8:	48 89 f1             	mov    %rsi,%rcx
   140003ceb:	c5 f8 77             	vzeroupper
   140003cee:	e8 55 e0 ff ff       	call   140001d48 <_ZNSt7__cxx1112basic_stringIcSt11char_traitsIcESaIcEED1Ev>
   140003cf3:	48 89 d9             	mov    %rbx,%rcx
   140003cf6:	e8 85 f1 ff ff       	call   140002e80 <_Unwind_Resume>
   140003cfb:	eb e8                	jmp    140003ce5 <main+0x455>
   140003cfd:	90                   	nop
   140003cfe:	90                   	nop
   140003cff:	90                   	nop

0000000140003d00 <register_frame_ctor>:
   140003d00:	e9 2b d7 ff ff       	jmp    140001430 <__gcc_register_frame>
   140003d05:	90                   	nop
   140003d06:	90                   	nop
   140003d07:	90                   	nop
   140003d08:	90                   	nop
   140003d09:	90                   	nop
   140003d0a:	90                   	nop
   140003d0b:	90                   	nop
   140003d0c:	90                   	nop
   140003d0d:	90                   	nop
   140003d0e:	90                   	nop
   140003d0f:	90                   	nop
